ARM GAS  C:\Users\SHOZO\AppData\Local\Temp\cc2WcnYb.s 			page 1


   1              		.syntax unified
   2              		.cpu cortex-m0
   3              		.fpu softvfp
   4              		.eabi_attribute 20, 1
   5              		.eabi_attribute 21, 1
   6              		.eabi_attribute 23, 3
   7              		.eabi_attribute 24, 1
   8              		.eabi_attribute 25, 1
   9              		.eabi_attribute 26, 1
  10              		.eabi_attribute 30, 6
  11              		.eabi_attribute 34, 0
  12              		.eabi_attribute 18, 4
  13              		.thumb
  14              		.syntax unified
  15              		.file	"CapSense_CSD.c"
  16              		.text
  17              	.Ltext0:
  18              		.cfi_sections	.debug_frame
  19              		.global	CapSense_CSD_lowLevelTuningDone
  20              		.bss
  21              		.type	CapSense_CSD_lowLevelTuningDone, %object
  22              		.size	CapSense_CSD_lowLevelTuningDone, 1
  23              	CapSense_CSD_lowLevelTuningDone:
  24 0000 00       		.space	1
  25              		.comm	CapSense_CSD_scanSpeedTbl,2,4
  26              		.global	CapSense_CSD_prescalersTuningDone
  27              		.type	CapSense_CSD_prescalersTuningDone, %object
  28              		.size	CapSense_CSD_prescalersTuningDone, 1
  29              	CapSense_CSD_prescalersTuningDone:
  30 0001 00       		.space	1
  31              		.global	CapSense_CSD_csdStatusVar
  32              		.type	CapSense_CSD_csdStatusVar, %object
  33              		.size	CapSense_CSD_csdStatusVar, 1
  34              	CapSense_CSD_csdStatusVar:
  35 0002 00       		.space	1
  36              		.global	CapSense_CSD_sensorIndex
  37              		.type	CapSense_CSD_sensorIndex, %object
  38              		.size	CapSense_CSD_sensorIndex, 1
  39              	CapSense_CSD_sensorIndex:
  40 0003 00       		.space	1
  41              		.global	CapSense_CSD_sensorRaw
  42              		.align	2
  43              		.type	CapSense_CSD_sensorRaw, %object
  44              		.size	CapSense_CSD_sensorRaw, 28
  45              	CapSense_CSD_sensorRaw:
  46 0004 00000000 		.space	28
  46      00000000 
  46      00000000 
  46      00000000 
  46      00000000 
  47              		.comm	CapSense_CSD_csdTrim1,1,1
  48              		.comm	CapSense_CSD_unscannedSnsDriveMode,14,4
  49              		.comm	CapSense_CSD_sensorEnableMaskBackup,2,4
  50              		.global	CapSense_CSD_sensorEnableMask
  51              		.data
  52              		.align	2
  53              		.type	CapSense_CSD_sensorEnableMask, %object
ARM GAS  C:\Users\SHOZO\AppData\Local\Temp\cc2WcnYb.s 			page 2


  54              		.size	CapSense_CSD_sensorEnableMask, 2
  55              	CapSense_CSD_sensorEnableMask:
  56 0000 FF       		.byte	-1
  57 0001 3F       		.byte	63
  58              		.global	CapSense_CSD_pcTable
  59 0002 0000     		.align	2
  60              		.type	CapSense_CSD_pcTable, %object
  61              		.size	CapSense_CSD_pcTable, 56
  62              	CapSense_CSD_pcTable:
  63 0004 08000440 		.word	1074003976
  64 0008 08000440 		.word	1074003976
  65 000c 08000440 		.word	1074003976
  66 0010 08000440 		.word	1074003976
  67 0014 08000440 		.word	1074003976
  68 0018 08000440 		.word	1074003976
  69 001c 08000440 		.word	1074003976
  70 0020 08010440 		.word	1074004232
  71 0024 08010440 		.word	1074004232
  72 0028 08010440 		.word	1074004232
  73 002c 08010440 		.word	1074004232
  74 0030 08010440 		.word	1074004232
  75 0034 08010440 		.word	1074004232
  76 0038 08020440 		.word	1074004488
  77              		.global	CapSense_CSD_portTable
  78              		.section	.rodata
  79              		.align	2
  80              		.type	CapSense_CSD_portTable, %object
  81              		.size	CapSense_CSD_portTable, 14
  82              	CapSense_CSD_portTable:
  83 0000 00       		.byte	0
  84 0001 00       		.byte	0
  85 0002 00       		.byte	0
  86 0003 00       		.byte	0
  87 0004 00       		.byte	0
  88 0005 00       		.byte	0
  89 0006 00       		.byte	0
  90 0007 01       		.byte	1
  91 0008 01       		.byte	1
  92 0009 01       		.byte	1
  93 000a 01       		.byte	1
  94 000b 01       		.byte	1
  95 000c 01       		.byte	1
  96 000d 02       		.byte	2
  97              		.global	CapSense_CSD_maskTable
  98 000e 0000     		.align	2
  99              		.type	CapSense_CSD_maskTable, %object
 100              		.size	CapSense_CSD_maskTable, 56
 101              	CapSense_CSD_maskTable:
 102 0010 01000000 		.word	1
 103 0014 02000000 		.word	2
 104 0018 04000000 		.word	4
 105 001c 08000000 		.word	8
 106 0020 10000000 		.word	16
 107 0024 20000000 		.word	32
 108 0028 40000000 		.word	64
 109 002c 01000000 		.word	1
 110 0030 02000000 		.word	2
ARM GAS  C:\Users\SHOZO\AppData\Local\Temp\cc2WcnYb.s 			page 3


 111 0034 04000000 		.word	4
 112 0038 08000000 		.word	8
 113 003c 10000000 		.word	16
 114 0040 20000000 		.word	32
 115 0044 01000000 		.word	1
 116              		.global	CapSense_CSD_pinShiftTbl
 117              		.align	2
 118              		.type	CapSense_CSD_pinShiftTbl, %object
 119              		.size	CapSense_CSD_pinShiftTbl, 14
 120              	CapSense_CSD_pinShiftTbl:
 121 0048 00       		.byte	0
 122 0049 01       		.byte	1
 123 004a 02       		.byte	2
 124 004b 03       		.byte	3
 125 004c 04       		.byte	4
 126 004d 05       		.byte	5
 127 004e 06       		.byte	6
 128 004f 00       		.byte	0
 129 0050 01       		.byte	1
 130 0051 02       		.byte	2
 131 0052 03       		.byte	3
 132 0053 04       		.byte	4
 133 0054 05       		.byte	5
 134 0055 00       		.byte	0
 135              		.comm	CapSense_CSD_modulationIDAC,14,4
 136              		.comm	CapSense_CSD_compensationIDAC,14,4
 137              		.global	CapSense_CSD_widgetResolution
 138              		.data
 139              		.align	2
 140              		.type	CapSense_CSD_widgetResolution, %object
 141              		.size	CapSense_CSD_widgetResolution, 56
 142              	CapSense_CSD_widgetResolution:
 143 003c 0000FF0F 		.word	268369920
 144 0040 0000FF0F 		.word	268369920
 145 0044 0000FF0F 		.word	268369920
 146 0048 0000FF0F 		.word	268369920
 147 004c 0000FF0F 		.word	268369920
 148 0050 0000FF0F 		.word	268369920
 149 0054 0000FF0F 		.word	268369920
 150 0058 0000FF0F 		.word	268369920
 151 005c 0000FF0F 		.word	268369920
 152 0060 0000FF0F 		.word	268369920
 153 0064 0000FF0F 		.word	268369920
 154 0068 0000FF0F 		.word	268369920
 155 006c 0000FF0F 		.word	268369920
 156 0070 0000FF0F 		.word	268369920
 157              		.comm	CapSense_CSD_senseClkDividerVal,14,4
 158              		.comm	CapSense_CSD_sampleClkDividerVal,14,4
 159              		.global	CapSense_CSD_widgetNumber
 160              		.section	.rodata
 161 0056 0000     		.align	2
 162              		.type	CapSense_CSD_widgetNumber, %object
 163              		.size	CapSense_CSD_widgetNumber, 14
 164              	CapSense_CSD_widgetNumber:
 165 0058 00       		.byte	0
 166 0059 01       		.byte	1
 167 005a 02       		.byte	2
ARM GAS  C:\Users\SHOZO\AppData\Local\Temp\cc2WcnYb.s 			page 4


 168 005b 03       		.byte	3
 169 005c 04       		.byte	4
 170 005d 05       		.byte	5
 171 005e 06       		.byte	6
 172 005f 07       		.byte	7
 173 0060 08       		.byte	8
 174 0061 09       		.byte	9
 175 0062 0A       		.byte	10
 176 0063 0B       		.byte	11
 177 0064 0C       		.byte	12
 178 0065 0D       		.byte	13
 179              		.global	CapSense_CSD_prtSelTbl
 180 0066 0000     		.align	2
 181              		.type	CapSense_CSD_prtSelTbl, %object
 182              		.size	CapSense_CSD_prtSelTbl, 20
 183              	CapSense_CSD_prtSelTbl:
 184 0068 00000140 		.word	1073807360
 185 006c 04000140 		.word	1073807364
 186 0070 08000140 		.word	1073807368
 187 0074 0C000140 		.word	1073807372
 188 0078 10000140 		.word	1073807376
 189              		.global	CapSense_CSD_prtCfgTbl
 190              		.align	2
 191              		.type	CapSense_CSD_prtCfgTbl, %object
 192              		.size	CapSense_CSD_prtCfgTbl, 20
 193              	CapSense_CSD_prtCfgTbl:
 194 007c 08000440 		.word	1074003976
 195 0080 08010440 		.word	1074004232
 196 0084 08020440 		.word	1074004488
 197 0088 08030440 		.word	1074004744
 198 008c 08040440 		.word	1074005000
 199              		.global	CapSense_CSD_prtDRTbl
 200              		.align	2
 201              		.type	CapSense_CSD_prtDRTbl, %object
 202              		.size	CapSense_CSD_prtDRTbl, 20
 203              	CapSense_CSD_prtDRTbl:
 204 0090 00000440 		.word	1074003968
 205 0094 00010440 		.word	1074004224
 206 0098 00020440 		.word	1074004480
 207 009c 00030440 		.word	1074004736
 208 00a0 00040440 		.word	1074004992
 209              		.section	.text.CapSense_CSD_Init,"ax",%progbits
 210              		.align	2
 211              		.global	CapSense_CSD_Init
 212              		.code	16
 213              		.thumb_func
 214              		.type	CapSense_CSD_Init, %function
 215              	CapSense_CSD_Init:
 216              	.LFB32:
 217              		.file 1 "Generated_Source\\PSoC4\\CapSense_CSD.c"
   1:Generated_Source\PSoC4/CapSense_CSD.c **** /*******************************************************************************
   2:Generated_Source\PSoC4/CapSense_CSD.c **** * File Name: CapSense_CSD.c
   3:Generated_Source\PSoC4/CapSense_CSD.c **** * Version 2.60
   4:Generated_Source\PSoC4/CapSense_CSD.c **** *
   5:Generated_Source\PSoC4/CapSense_CSD.c **** * Description:
   6:Generated_Source\PSoC4/CapSense_CSD.c **** *  This file provides the source code for scanning APIs for the CapSense CSD
   7:Generated_Source\PSoC4/CapSense_CSD.c **** *  component.
ARM GAS  C:\Users\SHOZO\AppData\Local\Temp\cc2WcnYb.s 			page 5


   8:Generated_Source\PSoC4/CapSense_CSD.c **** *
   9:Generated_Source\PSoC4/CapSense_CSD.c **** * Note:
  10:Generated_Source\PSoC4/CapSense_CSD.c **** *
  11:Generated_Source\PSoC4/CapSense_CSD.c **** ********************************************************************************
  12:Generated_Source\PSoC4/CapSense_CSD.c **** * Copyright 2013-2016, Cypress Semiconductor Corporation.  All rights reserved.
  13:Generated_Source\PSoC4/CapSense_CSD.c **** * You may use this file only in accordance with the license, terms, conditions,
  14:Generated_Source\PSoC4/CapSense_CSD.c **** * disclaimers, and limitations in the end user license agreement accompanying
  15:Generated_Source\PSoC4/CapSense_CSD.c **** * the software package with which this file was provided.
  16:Generated_Source\PSoC4/CapSense_CSD.c **** *******************************************************************************/
  17:Generated_Source\PSoC4/CapSense_CSD.c **** 
  18:Generated_Source\PSoC4/CapSense_CSD.c **** #include "CapSense_CSD.h"
  19:Generated_Source\PSoC4/CapSense_CSD.c **** #include "CapSense_CSD_PVT.h"
  20:Generated_Source\PSoC4/CapSense_CSD.c **** #include "cypins.h"
  21:Generated_Source\PSoC4/CapSense_CSD.c **** #include "cyapicallbacks.h"
  22:Generated_Source\PSoC4/CapSense_CSD.c **** 
  23:Generated_Source\PSoC4/CapSense_CSD.c **** #if(0u != CapSense_CSD_CSHL_API_GENERATE)
  24:Generated_Source\PSoC4/CapSense_CSD.c ****     #include "CapSense_CSD_CSHL.h"
  25:Generated_Source\PSoC4/CapSense_CSD.c **** #endif /* (0u != CapSense_CSD_CSHL_API_GENERATE) */
  26:Generated_Source\PSoC4/CapSense_CSD.c **** 
  27:Generated_Source\PSoC4/CapSense_CSD.c **** /* This definition is intended to prevent unexpected linker error.
  28:Generated_Source\PSoC4/CapSense_CSD.c ****    For more details please see the IAR Technical Note 49981 */
  29:Generated_Source\PSoC4/CapSense_CSD.c **** #if defined(__ICCARM__)
  30:Generated_Source\PSoC4/CapSense_CSD.c ****     extern void CapSense_CSD_EnableSensor(uint32 sensor);
  31:Generated_Source\PSoC4/CapSense_CSD.c ****     extern void CapSense_CSD_DisableSensor(uint32 sensor);
  32:Generated_Source\PSoC4/CapSense_CSD.c **** #endif /* (__ICCARM__) */
  33:Generated_Source\PSoC4/CapSense_CSD.c **** 
  34:Generated_Source\PSoC4/CapSense_CSD.c **** /* SmartSense functions */
  35:Generated_Source\PSoC4/CapSense_CSD.c **** #if (CapSense_CSD_TUNING_METHOD == CapSense_CSD__TUNING_AUTO)
  36:Generated_Source\PSoC4/CapSense_CSD.c ****     uint8 CapSense_CSD_lowLevelTuningDone = 0u;
  37:Generated_Source\PSoC4/CapSense_CSD.c ****     uint8 CapSense_CSD_scanSpeedTbl[((CapSense_CSD_TOTAL_SENSOR_COUNT - 1u) / 8u) + 1u];
  38:Generated_Source\PSoC4/CapSense_CSD.c **** #endif /* (CapSense_CSD_TUNING_METHOD == CapSense_CSD__TUNING_AUTO) */
  39:Generated_Source\PSoC4/CapSense_CSD.c **** 
  40:Generated_Source\PSoC4/CapSense_CSD.c **** #if(CapSense_CSD_PRS_OPTIONS != CapSense_CSD__PRS_NONE)
  41:Generated_Source\PSoC4/CapSense_CSD.c ****     uint8 CapSense_CSD_prescalersTuningDone = 0u;
  42:Generated_Source\PSoC4/CapSense_CSD.c **** #endif /* (CapSense_CSD_PRS_OPTIONS == CapSense_CSD__PRS_NONE) */
  43:Generated_Source\PSoC4/CapSense_CSD.c **** 
  44:Generated_Source\PSoC4/CapSense_CSD.c **** /* Global software variables */
  45:Generated_Source\PSoC4/CapSense_CSD.c **** volatile uint8 CapSense_CSD_csdStatusVar = 0u;   /* CapSense CSD status, variable */
  46:Generated_Source\PSoC4/CapSense_CSD.c **** volatile uint8 CapSense_CSD_sensorIndex = 0u;    /* Index of scannig sensor */
  47:Generated_Source\PSoC4/CapSense_CSD.c **** 
  48:Generated_Source\PSoC4/CapSense_CSD.c **** /* Global array of Raw Counts */
  49:Generated_Source\PSoC4/CapSense_CSD.c **** uint16 CapSense_CSD_sensorRaw[CapSense_CSD_TOTAL_SENSOR_COUNT] = {0u};
  50:Generated_Source\PSoC4/CapSense_CSD.c **** 
  51:Generated_Source\PSoC4/CapSense_CSD.c **** /* Backup variables for trim registers*/
  52:Generated_Source\PSoC4/CapSense_CSD.c **** #if (CapSense_CSD_IDAC1_POLARITY == CapSense_CSD__IDAC_SINK)
  53:Generated_Source\PSoC4/CapSense_CSD.c ****     uint8 CapSense_CSD_csdTrim2;
  54:Generated_Source\PSoC4/CapSense_CSD.c **** #else
  55:Generated_Source\PSoC4/CapSense_CSD.c ****     uint8 CapSense_CSD_csdTrim1;
  56:Generated_Source\PSoC4/CapSense_CSD.c **** #endif /* (CapSense_CSD_IDAC1_POLARITY == CapSense_CSD__IDAC_SINK) */
  57:Generated_Source\PSoC4/CapSense_CSD.c **** 
  58:Generated_Source\PSoC4/CapSense_CSD.c **** /* Global array of un-scanned sensors state */
  59:Generated_Source\PSoC4/CapSense_CSD.c **** uint8 CapSense_CSD_unscannedSnsDriveMode[CapSense_CSD_PORT_PIN_CONFIG_TBL_ZISE];
  60:Generated_Source\PSoC4/CapSense_CSD.c **** 
  61:Generated_Source\PSoC4/CapSense_CSD.c **** /* Backup array for CapSense_CSD_sensorEnableMask */
  62:Generated_Source\PSoC4/CapSense_CSD.c **** uint8 CapSense_CSD_sensorEnableMaskBackup[(((CapSense_CSD_TOTAL_SENSOR_COUNT - 1u) / 8u) + 1u)];
  63:Generated_Source\PSoC4/CapSense_CSD.c **** 
  64:Generated_Source\PSoC4/CapSense_CSD.c **** /* Configured constants and arrays by Customizer */
ARM GAS  C:\Users\SHOZO\AppData\Local\Temp\cc2WcnYb.s 			page 6


  65:Generated_Source\PSoC4/CapSense_CSD.c **** uint8 CapSense_CSD_sensorEnableMask[(((CapSense_CSD_TOTAL_SENSOR_COUNT - 1u) / 8u) + 1u)] = {
  66:Generated_Source\PSoC4/CapSense_CSD.c **** 0xFFu, 0x3Fu, };
  67:Generated_Source\PSoC4/CapSense_CSD.c **** 
  68:Generated_Source\PSoC4/CapSense_CSD.c **** reg32 * CapSense_CSD_pcTable[] = {
  69:Generated_Source\PSoC4/CapSense_CSD.c ****     (reg32 *)CapSense_CSD_Sns__Button0__BTN__PC, 
  70:Generated_Source\PSoC4/CapSense_CSD.c ****     (reg32 *)CapSense_CSD_Sns__Button1__BTN__PC, 
  71:Generated_Source\PSoC4/CapSense_CSD.c ****     (reg32 *)CapSense_CSD_Sns__Button2__BTN__PC, 
  72:Generated_Source\PSoC4/CapSense_CSD.c ****     (reg32 *)CapSense_CSD_Sns__Button3__BTN__PC, 
  73:Generated_Source\PSoC4/CapSense_CSD.c ****     (reg32 *)CapSense_CSD_Sns__Button4__BTN__PC, 
  74:Generated_Source\PSoC4/CapSense_CSD.c ****     (reg32 *)CapSense_CSD_Sns__Button5__BTN__PC, 
  75:Generated_Source\PSoC4/CapSense_CSD.c ****     (reg32 *)CapSense_CSD_Sns__Button6__BTN__PC, 
  76:Generated_Source\PSoC4/CapSense_CSD.c ****     (reg32 *)CapSense_CSD_Sns__Button7__BTN__PC, 
  77:Generated_Source\PSoC4/CapSense_CSD.c ****     (reg32 *)CapSense_CSD_Sns__Button8__BTN__PC, 
  78:Generated_Source\PSoC4/CapSense_CSD.c ****     (reg32 *)CapSense_CSD_Sns__Button9__BTN__PC, 
  79:Generated_Source\PSoC4/CapSense_CSD.c ****     (reg32 *)CapSense_CSD_Sns__Button10__BTN__PC, 
  80:Generated_Source\PSoC4/CapSense_CSD.c ****     (reg32 *)CapSense_CSD_Sns__Button11__BTN__PC, 
  81:Generated_Source\PSoC4/CapSense_CSD.c ****     (reg32 *)CapSense_CSD_Sns__Button12__BTN__PC, 
  82:Generated_Source\PSoC4/CapSense_CSD.c ****     (reg32 *)CapSense_CSD_Sns__GuardSensor__GRD__PC, 
  83:Generated_Source\PSoC4/CapSense_CSD.c **** };
  84:Generated_Source\PSoC4/CapSense_CSD.c **** 
  85:Generated_Source\PSoC4/CapSense_CSD.c **** const uint8 CapSense_CSD_portTable[] = {
  86:Generated_Source\PSoC4/CapSense_CSD.c ****     CapSense_CSD_Sns__Button0__BTN__PORT, 
  87:Generated_Source\PSoC4/CapSense_CSD.c ****     CapSense_CSD_Sns__Button1__BTN__PORT, 
  88:Generated_Source\PSoC4/CapSense_CSD.c ****     CapSense_CSD_Sns__Button2__BTN__PORT, 
  89:Generated_Source\PSoC4/CapSense_CSD.c ****     CapSense_CSD_Sns__Button3__BTN__PORT, 
  90:Generated_Source\PSoC4/CapSense_CSD.c ****     CapSense_CSD_Sns__Button4__BTN__PORT, 
  91:Generated_Source\PSoC4/CapSense_CSD.c ****     CapSense_CSD_Sns__Button5__BTN__PORT, 
  92:Generated_Source\PSoC4/CapSense_CSD.c ****     CapSense_CSD_Sns__Button6__BTN__PORT, 
  93:Generated_Source\PSoC4/CapSense_CSD.c ****     CapSense_CSD_Sns__Button7__BTN__PORT, 
  94:Generated_Source\PSoC4/CapSense_CSD.c ****     CapSense_CSD_Sns__Button8__BTN__PORT, 
  95:Generated_Source\PSoC4/CapSense_CSD.c ****     CapSense_CSD_Sns__Button9__BTN__PORT, 
  96:Generated_Source\PSoC4/CapSense_CSD.c ****     CapSense_CSD_Sns__Button10__BTN__PORT, 
  97:Generated_Source\PSoC4/CapSense_CSD.c ****     CapSense_CSD_Sns__Button11__BTN__PORT, 
  98:Generated_Source\PSoC4/CapSense_CSD.c ****     CapSense_CSD_Sns__Button12__BTN__PORT, 
  99:Generated_Source\PSoC4/CapSense_CSD.c ****     CapSense_CSD_Sns__GuardSensor__GRD__PORT, 
 100:Generated_Source\PSoC4/CapSense_CSD.c **** };
 101:Generated_Source\PSoC4/CapSense_CSD.c **** 
 102:Generated_Source\PSoC4/CapSense_CSD.c **** const uint32 CapSense_CSD_maskTable[] = {
 103:Generated_Source\PSoC4/CapSense_CSD.c ****     CapSense_CSD_Sns__Button0__BTN__MASK, 
 104:Generated_Source\PSoC4/CapSense_CSD.c ****     CapSense_CSD_Sns__Button1__BTN__MASK, 
 105:Generated_Source\PSoC4/CapSense_CSD.c ****     CapSense_CSD_Sns__Button2__BTN__MASK, 
 106:Generated_Source\PSoC4/CapSense_CSD.c ****     CapSense_CSD_Sns__Button3__BTN__MASK, 
 107:Generated_Source\PSoC4/CapSense_CSD.c ****     CapSense_CSD_Sns__Button4__BTN__MASK, 
 108:Generated_Source\PSoC4/CapSense_CSD.c ****     CapSense_CSD_Sns__Button5__BTN__MASK, 
 109:Generated_Source\PSoC4/CapSense_CSD.c ****     CapSense_CSD_Sns__Button6__BTN__MASK, 
 110:Generated_Source\PSoC4/CapSense_CSD.c ****     CapSense_CSD_Sns__Button7__BTN__MASK, 
 111:Generated_Source\PSoC4/CapSense_CSD.c ****     CapSense_CSD_Sns__Button8__BTN__MASK, 
 112:Generated_Source\PSoC4/CapSense_CSD.c ****     CapSense_CSD_Sns__Button9__BTN__MASK, 
 113:Generated_Source\PSoC4/CapSense_CSD.c ****     CapSense_CSD_Sns__Button10__BTN__MASK, 
 114:Generated_Source\PSoC4/CapSense_CSD.c ****     CapSense_CSD_Sns__Button11__BTN__MASK, 
 115:Generated_Source\PSoC4/CapSense_CSD.c ****     CapSense_CSD_Sns__Button12__BTN__MASK, 
 116:Generated_Source\PSoC4/CapSense_CSD.c ****     CapSense_CSD_Sns__GuardSensor__GRD__MASK, 
 117:Generated_Source\PSoC4/CapSense_CSD.c **** };
 118:Generated_Source\PSoC4/CapSense_CSD.c **** 
 119:Generated_Source\PSoC4/CapSense_CSD.c **** const uint8 CapSense_CSD_pinShiftTbl[] = {
 120:Generated_Source\PSoC4/CapSense_CSD.c ****     (uint8) CapSense_CSD_Sns__Button0__BTN__SHIFT, 
 121:Generated_Source\PSoC4/CapSense_CSD.c ****     (uint8) CapSense_CSD_Sns__Button1__BTN__SHIFT, 
ARM GAS  C:\Users\SHOZO\AppData\Local\Temp\cc2WcnYb.s 			page 7


 122:Generated_Source\PSoC4/CapSense_CSD.c ****     (uint8) CapSense_CSD_Sns__Button2__BTN__SHIFT, 
 123:Generated_Source\PSoC4/CapSense_CSD.c ****     (uint8) CapSense_CSD_Sns__Button3__BTN__SHIFT, 
 124:Generated_Source\PSoC4/CapSense_CSD.c ****     (uint8) CapSense_CSD_Sns__Button4__BTN__SHIFT, 
 125:Generated_Source\PSoC4/CapSense_CSD.c ****     (uint8) CapSense_CSD_Sns__Button5__BTN__SHIFT, 
 126:Generated_Source\PSoC4/CapSense_CSD.c ****     (uint8) CapSense_CSD_Sns__Button6__BTN__SHIFT, 
 127:Generated_Source\PSoC4/CapSense_CSD.c ****     (uint8) CapSense_CSD_Sns__Button7__BTN__SHIFT, 
 128:Generated_Source\PSoC4/CapSense_CSD.c ****     (uint8) CapSense_CSD_Sns__Button8__BTN__SHIFT, 
 129:Generated_Source\PSoC4/CapSense_CSD.c ****     (uint8) CapSense_CSD_Sns__Button9__BTN__SHIFT, 
 130:Generated_Source\PSoC4/CapSense_CSD.c ****     (uint8) CapSense_CSD_Sns__Button10__BTN__SHIFT, 
 131:Generated_Source\PSoC4/CapSense_CSD.c ****     (uint8) CapSense_CSD_Sns__Button11__BTN__SHIFT, 
 132:Generated_Source\PSoC4/CapSense_CSD.c ****     (uint8) CapSense_CSD_Sns__Button12__BTN__SHIFT, 
 133:Generated_Source\PSoC4/CapSense_CSD.c ****     (uint8) CapSense_CSD_Sns__GuardSensor__GRD__SHIFT, 
 134:Generated_Source\PSoC4/CapSense_CSD.c **** };
 135:Generated_Source\PSoC4/CapSense_CSD.c **** 
 136:Generated_Source\PSoC4/CapSense_CSD.c **** uint8 CapSense_CSD_modulationIDAC[CapSense_CSD_TOTAL_SENSOR_COUNT];
 137:Generated_Source\PSoC4/CapSense_CSD.c **** uint8 CapSense_CSD_compensationIDAC[CapSense_CSD_TOTAL_SENSOR_COUNT];
 138:Generated_Source\PSoC4/CapSense_CSD.c **** 
 139:Generated_Source\PSoC4/CapSense_CSD.c **** uint32 CapSense_CSD_widgetResolution[CapSense_CSD_RESOLUTIONS_TBL_SIZE] = {
 140:Generated_Source\PSoC4/CapSense_CSD.c ****     CapSense_CSD_RESOLUTION_12_BITS,
 141:Generated_Source\PSoC4/CapSense_CSD.c ****     CapSense_CSD_RESOLUTION_12_BITS,
 142:Generated_Source\PSoC4/CapSense_CSD.c ****     CapSense_CSD_RESOLUTION_12_BITS,
 143:Generated_Source\PSoC4/CapSense_CSD.c ****     CapSense_CSD_RESOLUTION_12_BITS,
 144:Generated_Source\PSoC4/CapSense_CSD.c ****     CapSense_CSD_RESOLUTION_12_BITS,
 145:Generated_Source\PSoC4/CapSense_CSD.c ****     CapSense_CSD_RESOLUTION_12_BITS,
 146:Generated_Source\PSoC4/CapSense_CSD.c ****     CapSense_CSD_RESOLUTION_12_BITS,
 147:Generated_Source\PSoC4/CapSense_CSD.c ****     CapSense_CSD_RESOLUTION_12_BITS,
 148:Generated_Source\PSoC4/CapSense_CSD.c ****     CapSense_CSD_RESOLUTION_12_BITS,
 149:Generated_Source\PSoC4/CapSense_CSD.c ****     CapSense_CSD_RESOLUTION_12_BITS,
 150:Generated_Source\PSoC4/CapSense_CSD.c ****     CapSense_CSD_RESOLUTION_12_BITS,
 151:Generated_Source\PSoC4/CapSense_CSD.c ****     CapSense_CSD_RESOLUTION_12_BITS,
 152:Generated_Source\PSoC4/CapSense_CSD.c ****     CapSense_CSD_RESOLUTION_12_BITS,
 153:Generated_Source\PSoC4/CapSense_CSD.c ****     CapSense_CSD_RESOLUTION_12_BITS,
 154:Generated_Source\PSoC4/CapSense_CSD.c **** };
 155:Generated_Source\PSoC4/CapSense_CSD.c **** 
 156:Generated_Source\PSoC4/CapSense_CSD.c **** uint8 CapSense_CSD_senseClkDividerVal[CapSense_CSD_TOTAL_SCANSLOT_COUNT];
 157:Generated_Source\PSoC4/CapSense_CSD.c **** uint8 CapSense_CSD_sampleClkDividerVal[CapSense_CSD_TOTAL_SCANSLOT_COUNT];
 158:Generated_Source\PSoC4/CapSense_CSD.c **** 
 159:Generated_Source\PSoC4/CapSense_CSD.c **** const uint8 CapSense_CSD_widgetNumber[CapSense_CSD_TOTAL_SENSOR_COUNT] = {
 160:Generated_Source\PSoC4/CapSense_CSD.c ****     0u, /* Button0__BTN */
 161:Generated_Source\PSoC4/CapSense_CSD.c ****     1u, /* Button1__BTN */
 162:Generated_Source\PSoC4/CapSense_CSD.c ****     2u, /* Button2__BTN */
 163:Generated_Source\PSoC4/CapSense_CSD.c ****     3u, /* Button3__BTN */
 164:Generated_Source\PSoC4/CapSense_CSD.c ****     4u, /* Button4__BTN */
 165:Generated_Source\PSoC4/CapSense_CSD.c ****     5u, /* Button5__BTN */
 166:Generated_Source\PSoC4/CapSense_CSD.c ****     6u, /* Button6__BTN */
 167:Generated_Source\PSoC4/CapSense_CSD.c ****     7u, /* Button7__BTN */
 168:Generated_Source\PSoC4/CapSense_CSD.c ****     8u, /* Button8__BTN */
 169:Generated_Source\PSoC4/CapSense_CSD.c ****     9u, /* Button9__BTN */
 170:Generated_Source\PSoC4/CapSense_CSD.c ****     10u, /* Button10__BTN */
 171:Generated_Source\PSoC4/CapSense_CSD.c ****     11u, /* Button11__BTN */
 172:Generated_Source\PSoC4/CapSense_CSD.c ****     12u, /* Button12__BTN */
 173:Generated_Source\PSoC4/CapSense_CSD.c ****     13u, /* GuardSensor__GRD */
 174:Generated_Source\PSoC4/CapSense_CSD.c **** };
 175:Generated_Source\PSoC4/CapSense_CSD.c **** 
 176:Generated_Source\PSoC4/CapSense_CSD.c **** reg32* const CapSense_CSD_prtSelTbl[CapSense_CSD_CFG_REG_TBL_SIZE] = {
 177:Generated_Source\PSoC4/CapSense_CSD.c ****     ((reg32 *) CYREG_HSIOM_PORT_SEL0),
 178:Generated_Source\PSoC4/CapSense_CSD.c ****     ((reg32 *) CYREG_HSIOM_PORT_SEL1),
ARM GAS  C:\Users\SHOZO\AppData\Local\Temp\cc2WcnYb.s 			page 8


 179:Generated_Source\PSoC4/CapSense_CSD.c ****     ((reg32 *) CYREG_HSIOM_PORT_SEL2),
 180:Generated_Source\PSoC4/CapSense_CSD.c ****     ((reg32 *) CYREG_HSIOM_PORT_SEL3),
 181:Generated_Source\PSoC4/CapSense_CSD.c ****     ((reg32 *) CYREG_HSIOM_PORT_SEL4),
 182:Generated_Source\PSoC4/CapSense_CSD.c **** };
 183:Generated_Source\PSoC4/CapSense_CSD.c **** 
 184:Generated_Source\PSoC4/CapSense_CSD.c **** reg32* const CapSense_CSD_prtCfgTbl[CapSense_CSD_CFG_REG_TBL_SIZE] = {
 185:Generated_Source\PSoC4/CapSense_CSD.c ****     ((reg32 *) CYREG_PRT0_PC),
 186:Generated_Source\PSoC4/CapSense_CSD.c ****     ((reg32 *) CYREG_PRT1_PC),
 187:Generated_Source\PSoC4/CapSense_CSD.c ****     ((reg32 *) CYREG_PRT2_PC),
 188:Generated_Source\PSoC4/CapSense_CSD.c ****     ((reg32 *) CYREG_PRT3_PC),
 189:Generated_Source\PSoC4/CapSense_CSD.c ****     ((reg32 *) CYREG_PRT4_PC),
 190:Generated_Source\PSoC4/CapSense_CSD.c **** };
 191:Generated_Source\PSoC4/CapSense_CSD.c **** 
 192:Generated_Source\PSoC4/CapSense_CSD.c **** reg32* const CapSense_CSD_prtDRTbl[CapSense_CSD_CFG_REG_TBL_SIZE] = {
 193:Generated_Source\PSoC4/CapSense_CSD.c ****     ((reg32 *) CYREG_PRT0_DR),
 194:Generated_Source\PSoC4/CapSense_CSD.c ****     ((reg32 *) CYREG_PRT1_DR),
 195:Generated_Source\PSoC4/CapSense_CSD.c ****     ((reg32 *) CYREG_PRT2_DR),
 196:Generated_Source\PSoC4/CapSense_CSD.c ****     ((reg32 *) CYREG_PRT3_DR),
 197:Generated_Source\PSoC4/CapSense_CSD.c ****     ((reg32 *) CYREG_PRT4_DR),
 198:Generated_Source\PSoC4/CapSense_CSD.c **** };
 199:Generated_Source\PSoC4/CapSense_CSD.c **** 
 200:Generated_Source\PSoC4/CapSense_CSD.c **** 
 201:Generated_Source\PSoC4/CapSense_CSD.c **** 
 202:Generated_Source\PSoC4/CapSense_CSD.c **** /*******************************************************************************
 203:Generated_Source\PSoC4/CapSense_CSD.c **** * Function Name: CapSense_CSD_Init
 204:Generated_Source\PSoC4/CapSense_CSD.c **** ********************************************************************************
 205:Generated_Source\PSoC4/CapSense_CSD.c **** *
 206:Generated_Source\PSoC4/CapSense_CSD.c **** * Summary:
 207:Generated_Source\PSoC4/CapSense_CSD.c **** *  API initializes default CapSense configuration provided by the customizer that defines
 208:Generated_Source\PSoC4/CapSense_CSD.c **** *  the mode of component operations and resets all the sensors to an inactive state.
 209:Generated_Source\PSoC4/CapSense_CSD.c **** *
 210:Generated_Source\PSoC4/CapSense_CSD.c **** * Parameters:
 211:Generated_Source\PSoC4/CapSense_CSD.c **** *  None
 212:Generated_Source\PSoC4/CapSense_CSD.c **** *
 213:Generated_Source\PSoC4/CapSense_CSD.c **** * Return:
 214:Generated_Source\PSoC4/CapSense_CSD.c **** *  None
 215:Generated_Source\PSoC4/CapSense_CSD.c **** *
 216:Generated_Source\PSoC4/CapSense_CSD.c **** * Global Variables:
 217:Generated_Source\PSoC4/CapSense_CSD.c **** *  CapSense_CSD_immunityIndex - defines immunity level.
 218:Generated_Source\PSoC4/CapSense_CSD.c **** *
 219:Generated_Source\PSoC4/CapSense_CSD.c **** * Side Effects:
 220:Generated_Source\PSoC4/CapSense_CSD.c **** *  None
 221:Generated_Source\PSoC4/CapSense_CSD.c **** *
 222:Generated_Source\PSoC4/CapSense_CSD.c **** *******************************************************************************/
 223:Generated_Source\PSoC4/CapSense_CSD.c **** void CapSense_CSD_Init(void)
 224:Generated_Source\PSoC4/CapSense_CSD.c **** {
 218              		.loc 1 224 0
 219              		.cfi_startproc
 220              		@ args = 0, pretend = 0, frame = 8
 221              		@ frame_needed = 1, uses_anonymous_args = 0
 222 0000 80B5     		push	{r7, lr}
 223              		.cfi_def_cfa_offset 8
 224              		.cfi_offset 7, -8
 225              		.cfi_offset 14, -4
 226 0002 82B0     		sub	sp, sp, #8
 227              		.cfi_def_cfa_offset 16
 228 0004 00AF     		add	r7, sp, #0
ARM GAS  C:\Users\SHOZO\AppData\Local\Temp\cc2WcnYb.s 			page 9


 229              		.cfi_def_cfa_register 7
 225:Generated_Source\PSoC4/CapSense_CSD.c ****     uint32 curSensor;
 226:Generated_Source\PSoC4/CapSense_CSD.c **** 
 227:Generated_Source\PSoC4/CapSense_CSD.c ****     #if(CapSense_CSD_IS_SHIELD_ENABLE)
 228:Generated_Source\PSoC4/CapSense_CSD.c **** 
 229:Generated_Source\PSoC4/CapSense_CSD.c ****         #if((CapSense_CSD_CSH_TANK_PREGARGE_OPTION == CapSense_CSD__CAPPRIOBUF) || (0u != CapSense_
 230:Generated_Source\PSoC4/CapSense_CSD.c ****             uint32 newRegValue;
 231:Generated_Source\PSoC4/CapSense_CSD.c **** 
 232:Generated_Source\PSoC4/CapSense_CSD.c ****             newRegValue = CapSense_CSD_CTANK_CONNECTION_REG;
 233:Generated_Source\PSoC4/CapSense_CSD.c ****             newRegValue &= ~(CapSense_CSD_CSD_CTANK_CONNECTION_MASK);
 234:Generated_Source\PSoC4/CapSense_CSD.c ****             newRegValue |= CapSense_CSD_CSD_CTANK_TO_AMUXBUS_B;
 235:Generated_Source\PSoC4/CapSense_CSD.c ****             CapSense_CSD_CTANK_CONNECTION_REG = newRegValue;
 236:Generated_Source\PSoC4/CapSense_CSD.c **** 
 237:Generated_Source\PSoC4/CapSense_CSD.c ****             #if(CapSense_CSD_CSH_TANK_PREGARGE_OPTION == CapSense_CSD__CAPPRIOBUF)
 238:Generated_Source\PSoC4/CapSense_CSD.c ****                 newRegValue = CapSense_CSD_CTANK_PORT_PC_REG;
 239:Generated_Source\PSoC4/CapSense_CSD.c ****                 newRegValue &= ~(CapSense_CSD_CSD_CTANK_PC_MASK);
 240:Generated_Source\PSoC4/CapSense_CSD.c ****                 newRegValue |= CapSense_CSD_CTANK_PC_STRONG_MODE;
 241:Generated_Source\PSoC4/CapSense_CSD.c ****                 CapSense_CSD_CTANK_PORT_PC_REG = newRegValue;
 242:Generated_Source\PSoC4/CapSense_CSD.c **** 
 243:Generated_Source\PSoC4/CapSense_CSD.c ****                 newRegValue = CapSense_CSD_CTANK_PORT_DR_REG;
 244:Generated_Source\PSoC4/CapSense_CSD.c ****                 newRegValue &= ~(CapSense_CSD_CTANK_DR_MASK);
 245:Generated_Source\PSoC4/CapSense_CSD.c ****                 newRegValue |= CapSense_CSD_CTANK_DR_CONFIG;
 246:Generated_Source\PSoC4/CapSense_CSD.c ****                 CapSense_CSD_CTANK_PORT_DR_REG = newRegValue;
 247:Generated_Source\PSoC4/CapSense_CSD.c ****             #endif /* (CapSense_CSD_CSH_TANK_PREGARGE_OPTION == CapSense_CSD__CAPPRIOBUF) */
 248:Generated_Source\PSoC4/CapSense_CSD.c **** 
 249:Generated_Source\PSoC4/CapSense_CSD.c ****         #endif /* ((CapSense_CSD_CSH_TANK_PREGARGE_OPTION == CapSense_CSD__CAPPRIOBUF) || (CapSense
 250:Generated_Source\PSoC4/CapSense_CSD.c **** 
 251:Generated_Source\PSoC4/CapSense_CSD.c ****         CapSense_CSD_EnableShieldElectrode((uint32)CapSense_CSD_SHIELD_PIN_NUMBER, (uint32)CapSense
 230              		.loc 1 251 0
 231 0006 0121     		movs	r1, #1
 232 0008 0720     		movs	r0, #7
 233 000a FFF7FEFF 		bl	CapSense_CSD_EnableShieldElectrode
 252:Generated_Source\PSoC4/CapSense_CSD.c **** 
 253:Generated_Source\PSoC4/CapSense_CSD.c ****     #endif /* (CapSense_CSD_IS_SHIELD_ENABLE) */
 254:Generated_Source\PSoC4/CapSense_CSD.c **** 
 255:Generated_Source\PSoC4/CapSense_CSD.c ****     for(curSensor = 0u; curSensor < CapSense_CSD_TOTAL_SENSOR_COUNT; curSensor++)
 234              		.loc 1 255 0
 235 000e 0023     		movs	r3, #0
 236 0010 7B60     		str	r3, [r7, #4]
 237 0012 07E0     		b	.L2
 238              	.L3:
 256:Generated_Source\PSoC4/CapSense_CSD.c ****     {
 257:Generated_Source\PSoC4/CapSense_CSD.c ****         CapSense_CSD_SetUnscannedSensorState(curSensor, CapSense_CSD_CONNECT_INACTIVE_SNS);
 239              		.loc 1 257 0 discriminator 3
 240 0014 7B68     		ldr	r3, [r7, #4]
 241 0016 0221     		movs	r1, #2
 242 0018 1800     		movs	r0, r3
 243 001a FFF7FEFF 		bl	CapSense_CSD_SetUnscannedSensorState
 255:Generated_Source\PSoC4/CapSense_CSD.c ****     {
 244              		.loc 1 255 0 discriminator 3
 245 001e 7B68     		ldr	r3, [r7, #4]
 246 0020 0133     		adds	r3, r3, #1
 247 0022 7B60     		str	r3, [r7, #4]
 248              	.L2:
 255:Generated_Source\PSoC4/CapSense_CSD.c ****     {
 249              		.loc 1 255 0 is_stmt 0 discriminator 1
 250 0024 7B68     		ldr	r3, [r7, #4]
ARM GAS  C:\Users\SHOZO\AppData\Local\Temp\cc2WcnYb.s 			page 10


 251 0026 0D2B     		cmp	r3, #13
 252 0028 F4D9     		bls	.L3
 258:Generated_Source\PSoC4/CapSense_CSD.c ****     }
 259:Generated_Source\PSoC4/CapSense_CSD.c **** 
 260:Generated_Source\PSoC4/CapSense_CSD.c ****     CapSense_CSD_CsdHwBlockInit();
 253              		.loc 1 260 0 is_stmt 1
 254 002a FFF7FEFF 		bl	CapSense_CSD_CsdHwBlockInit
 261:Generated_Source\PSoC4/CapSense_CSD.c ****     CapSense_CSD_SetShieldDelay(CapSense_CSD_SHIELD_DELAY );
 255              		.loc 1 261 0
 256 002e 0020     		movs	r0, #0
 257 0030 FFF7FEFF 		bl	CapSense_CSD_SetShieldDelay
 262:Generated_Source\PSoC4/CapSense_CSD.c **** 
 263:Generated_Source\PSoC4/CapSense_CSD.c ****     /* Clear all sensors */
 264:Generated_Source\PSoC4/CapSense_CSD.c ****     CapSense_CSD_ClearSensors();
 258              		.loc 1 264 0
 259 0034 FFF7FEFF 		bl	CapSense_CSD_ClearSensors
 265:Generated_Source\PSoC4/CapSense_CSD.c **** }
 260              		.loc 1 265 0
 261 0038 C046     		nop
 262 003a BD46     		mov	sp, r7
 263 003c 02B0     		add	sp, sp, #8
 264              		@ sp needed
 265 003e 80BD     		pop	{r7, pc}
 266              		.cfi_endproc
 267              	.LFE32:
 268              		.size	CapSense_CSD_Init, .-CapSense_CSD_Init
 269              		.section	.text.CapSense_CSD_CsdHwBlockInit,"ax",%progbits
 270              		.align	2
 271              		.global	CapSense_CSD_CsdHwBlockInit
 272              		.code	16
 273              		.thumb_func
 274              		.type	CapSense_CSD_CsdHwBlockInit, %function
 275              	CapSense_CSD_CsdHwBlockInit:
 276              	.LFB33:
 266:Generated_Source\PSoC4/CapSense_CSD.c **** 
 267:Generated_Source\PSoC4/CapSense_CSD.c **** /*******************************************************************************
 268:Generated_Source\PSoC4/CapSense_CSD.c **** * Function Name: CapSense_CSD_CsdHwBlockInit
 269:Generated_Source\PSoC4/CapSense_CSD.c **** ********************************************************************************
 270:Generated_Source\PSoC4/CapSense_CSD.c **** *
 271:Generated_Source\PSoC4/CapSense_CSD.c **** * Summary:
 272:Generated_Source\PSoC4/CapSense_CSD.c **** *  Initialises the hardware parameters of the CSD block
 273:Generated_Source\PSoC4/CapSense_CSD.c **** *
 274:Generated_Source\PSoC4/CapSense_CSD.c **** * Parameters:
 275:Generated_Source\PSoC4/CapSense_CSD.c **** *  None
 276:Generated_Source\PSoC4/CapSense_CSD.c **** *
 277:Generated_Source\PSoC4/CapSense_CSD.c **** * Return:
 278:Generated_Source\PSoC4/CapSense_CSD.c **** *  None
 279:Generated_Source\PSoC4/CapSense_CSD.c **** *
 280:Generated_Source\PSoC4/CapSense_CSD.c **** * Global Variables:
 281:Generated_Source\PSoC4/CapSense_CSD.c **** *  CapSense_CSD_csdTrim1 - Contains IDAC trim register value for Sourcing Mode.
 282:Generated_Source\PSoC4/CapSense_CSD.c **** *  CapSense_CSD_csdTrim2 - Contains IDAC trim register value for Sinking Mode.
 283:Generated_Source\PSoC4/CapSense_CSD.c **** *
 284:Generated_Source\PSoC4/CapSense_CSD.c **** * Side Effects:
 285:Generated_Source\PSoC4/CapSense_CSD.c **** *  None
 286:Generated_Source\PSoC4/CapSense_CSD.c **** *
 287:Generated_Source\PSoC4/CapSense_CSD.c **** *******************************************************************************/
 288:Generated_Source\PSoC4/CapSense_CSD.c **** void CapSense_CSD_CsdHwBlockInit(void)
ARM GAS  C:\Users\SHOZO\AppData\Local\Temp\cc2WcnYb.s 			page 11


 289:Generated_Source\PSoC4/CapSense_CSD.c **** {
 277              		.loc 1 289 0
 278              		.cfi_startproc
 279              		@ args = 0, pretend = 0, frame = 8
 280              		@ frame_needed = 1, uses_anonymous_args = 0
 281 0000 80B5     		push	{r7, lr}
 282              		.cfi_def_cfa_offset 8
 283              		.cfi_offset 7, -8
 284              		.cfi_offset 14, -4
 285 0002 82B0     		sub	sp, sp, #8
 286              		.cfi_def_cfa_offset 16
 287 0004 00AF     		add	r7, sp, #0
 288              		.cfi_def_cfa_register 7
 290:Generated_Source\PSoC4/CapSense_CSD.c ****     uint32 newRegValue;
 291:Generated_Source\PSoC4/CapSense_CSD.c **** 
 292:Generated_Source\PSoC4/CapSense_CSD.c ****         /* Set trim registers for CSD Mode */
 293:Generated_Source\PSoC4/CapSense_CSD.c ****     #if (CapSense_CSD_IDAC1_POLARITY == CapSense_CSD__IDAC_SINK)
 294:Generated_Source\PSoC4/CapSense_CSD.c ****         /* iDAC1 Sinking Mode */
 295:Generated_Source\PSoC4/CapSense_CSD.c ****         CapSense_CSD_csdTrim2 = (uint8)CapSense_CSD_CSD_TRIM2_REG;
 296:Generated_Source\PSoC4/CapSense_CSD.c ****         newRegValue = CapSense_CSD_csdTrim2;
 297:Generated_Source\PSoC4/CapSense_CSD.c ****         newRegValue &= CapSense_CSD_CSD_IDAC1_TRIM_MASK;
 298:Generated_Source\PSoC4/CapSense_CSD.c ****         newRegValue |= (uint32)((uint32)CapSense_CSD_SFLASH_CSD_TRIM2_REG & (uint32)CapSense_CSD_CS
 299:Generated_Source\PSoC4/CapSense_CSD.c **** 
 300:Generated_Source\PSoC4/CapSense_CSD.c ****         #if (CapSense_CSD_IDAC_CNT == 2u)
 301:Generated_Source\PSoC4/CapSense_CSD.c ****             /* iDAC2 Sinking Mode */
 302:Generated_Source\PSoC4/CapSense_CSD.c ****             newRegValue &= CapSense_CSD_CSD_IDAC2_TRIM_MASK;
 303:Generated_Source\PSoC4/CapSense_CSD.c ****             newRegValue |= (uint32)((uint32)CapSense_CSD_SFLASH_CSD_TRIM2_REG & (uint32)CapSense_CS
 304:Generated_Source\PSoC4/CapSense_CSD.c ****         #endif /* (CapSense_CSD_IDAC_CNT == 2u) */
 305:Generated_Source\PSoC4/CapSense_CSD.c ****         CapSense_CSD_CSD_TRIM2_REG = newRegValue;
 306:Generated_Source\PSoC4/CapSense_CSD.c ****     #else
 307:Generated_Source\PSoC4/CapSense_CSD.c ****         /* iDAC1 Sourcing Mode */
 308:Generated_Source\PSoC4/CapSense_CSD.c ****         CapSense_CSD_csdTrim1 = (uint8)CapSense_CSD_CSD_TRIM1_REG;
 289              		.loc 1 308 0
 290 0006 254B     		ldr	r3, .L5
 291 0008 1B68     		ldr	r3, [r3]
 292 000a DAB2     		uxtb	r2, r3
 293 000c 244B     		ldr	r3, .L5+4
 294 000e 1A70     		strb	r2, [r3]
 309:Generated_Source\PSoC4/CapSense_CSD.c ****         newRegValue = CapSense_CSD_csdTrim1;
 295              		.loc 1 309 0
 296 0010 234B     		ldr	r3, .L5+4
 297 0012 1B78     		ldrb	r3, [r3]
 298 0014 7B60     		str	r3, [r7, #4]
 310:Generated_Source\PSoC4/CapSense_CSD.c ****         newRegValue &= CapSense_CSD_CSD_IDAC1_TRIM_MASK;
 299              		.loc 1 310 0
 300 0016 7B68     		ldr	r3, [r7, #4]
 301 0018 0F22     		movs	r2, #15
 302 001a 9343     		bics	r3, r2
 303 001c 7B60     		str	r3, [r7, #4]
 311:Generated_Source\PSoC4/CapSense_CSD.c ****         newRegValue |= (uint32)((uint32)CapSense_CSD_SFLASH_CSD_TRIM1_REG & (uint32)CapSense_CSD_CS
 304              		.loc 1 311 0
 305 001e 214B     		ldr	r3, .L5+8
 306 0020 1B78     		ldrb	r3, [r3]
 307 0022 DBB2     		uxtb	r3, r3
 308 0024 1A00     		movs	r2, r3
 309 0026 0F23     		movs	r3, #15
 310 0028 1340     		ands	r3, r2
ARM GAS  C:\Users\SHOZO\AppData\Local\Temp\cc2WcnYb.s 			page 12


 311 002a 7A68     		ldr	r2, [r7, #4]
 312 002c 1343     		orrs	r3, r2
 313 002e 7B60     		str	r3, [r7, #4]
 312:Generated_Source\PSoC4/CapSense_CSD.c ****         #if (CapSense_CSD_IDAC_CNT == 2u)
 313:Generated_Source\PSoC4/CapSense_CSD.c ****              /* iDAC2 Sourcing Mode */
 314:Generated_Source\PSoC4/CapSense_CSD.c ****             newRegValue &= CapSense_CSD_CSD_IDAC2_TRIM_MASK;
 314              		.loc 1 314 0
 315 0030 7B68     		ldr	r3, [r7, #4]
 316 0032 F022     		movs	r2, #240
 317 0034 9343     		bics	r3, r2
 318 0036 7B60     		str	r3, [r7, #4]
 315:Generated_Source\PSoC4/CapSense_CSD.c ****             newRegValue |= (uint32)((uint32)CapSense_CSD_SFLASH_CSD_TRIM1_REG & (uint32)CapSense_CS
 319              		.loc 1 315 0
 320 0038 1A4B     		ldr	r3, .L5+8
 321 003a 1B78     		ldrb	r3, [r3]
 322 003c DBB2     		uxtb	r3, r3
 323 003e 1A00     		movs	r2, r3
 324 0040 F023     		movs	r3, #240
 325 0042 1340     		ands	r3, r2
 326 0044 7A68     		ldr	r2, [r7, #4]
 327 0046 1343     		orrs	r3, r2
 328 0048 7B60     		str	r3, [r7, #4]
 316:Generated_Source\PSoC4/CapSense_CSD.c ****         #endif
 317:Generated_Source\PSoC4/CapSense_CSD.c ****         CapSense_CSD_CSD_TRIM1_REG = newRegValue;
 329              		.loc 1 317 0
 330 004a 144B     		ldr	r3, .L5
 331 004c 7A68     		ldr	r2, [r7, #4]
 332 004e 1A60     		str	r2, [r3]
 318:Generated_Source\PSoC4/CapSense_CSD.c ****     #endif /* (CapSense_CSD_IDAC1_POLARITY == CapSense_CSD__IDAC_SINK) */
 319:Generated_Source\PSoC4/CapSense_CSD.c **** 
 320:Generated_Source\PSoC4/CapSense_CSD.c ****     /* Configure CSD and IDAC */
 321:Generated_Source\PSoC4/CapSense_CSD.c ****     #if (CapSense_CSD_IDAC_CNT > 1u)
 322:Generated_Source\PSoC4/CapSense_CSD.c ****         CapSense_CSD_CSD_IDAC_REG = CapSense_CSD_DEFAULT_CSD_IDAC_CONFIG;
 333              		.loc 1 322 0
 334 0050 154B     		ldr	r3, .L5+12
 335 0052 164A     		ldr	r2, .L5+16
 336 0054 1A60     		str	r2, [r3]
 323:Generated_Source\PSoC4/CapSense_CSD.c ****         CapSense_CSD_CSD_CFG_REG = CapSense_CSD_DEFAULT_CSD_CONFIG;
 337              		.loc 1 323 0
 338 0056 164B     		ldr	r3, .L5+20
 339 0058 164A     		ldr	r2, .L5+24
 340 005a 1A60     		str	r2, [r3]
 324:Generated_Source\PSoC4/CapSense_CSD.c ****     #else
 325:Generated_Source\PSoC4/CapSense_CSD.c ****         CapSense_CSD_CSD_IDAC_REG &= ~(CapSense_CSD_CSD_IDAC1_MODE_MASK  | CapSense_CSD_CSD_IDAC1_D
 326:Generated_Source\PSoC4/CapSense_CSD.c ****         CapSense_CSD_CSD_IDAC_REG |= CapSense_CSD_DEFAULT_CSD_IDAC_CONFIG;
 327:Generated_Source\PSoC4/CapSense_CSD.c **** 
 328:Generated_Source\PSoC4/CapSense_CSD.c ****         CapSense_CSD_CSD_CFG_REG &= ~(CapSense_CSD_CSD_CONFIG_MASK);
 329:Generated_Source\PSoC4/CapSense_CSD.c ****         CapSense_CSD_CSD_CFG_REG |= (CapSense_CSD_DEFAULT_CSD_CONFIG);
 330:Generated_Source\PSoC4/CapSense_CSD.c ****     #endif /* (CapSense_CSD_IDAC_CNT > 1u) */
 331:Generated_Source\PSoC4/CapSense_CSD.c **** 
 332:Generated_Source\PSoC4/CapSense_CSD.c **** 
 333:Generated_Source\PSoC4/CapSense_CSD.c ****     /* Connect Cmod to AMUX bus */
 334:Generated_Source\PSoC4/CapSense_CSD.c ****     newRegValue = CapSense_CSD_CMOD_CONNECTION_REG;
 341              		.loc 1 334 0
 342 005c 164B     		ldr	r3, .L5+28
 343 005e 1B68     		ldr	r3, [r3]
 344 0060 7B60     		str	r3, [r7, #4]
ARM GAS  C:\Users\SHOZO\AppData\Local\Temp\cc2WcnYb.s 			page 13


 335:Generated_Source\PSoC4/CapSense_CSD.c ****     newRegValue &= ~(CapSense_CSD_CSD_CMOD_CONNECTION_MASK);
 345              		.loc 1 335 0
 346 0062 7B68     		ldr	r3, [r7, #4]
 347 0064 154A     		ldr	r2, .L5+32
 348 0066 1340     		ands	r3, r2
 349 0068 7B60     		str	r3, [r7, #4]
 336:Generated_Source\PSoC4/CapSense_CSD.c ****     newRegValue |= CapSense_CSD_CSD_CMOD_TO_AMUXBUS_A;
 350              		.loc 1 336 0
 351 006a 7B68     		ldr	r3, [r7, #4]
 352 006c C022     		movs	r2, #192
 353 006e D200     		lsls	r2, r2, #3
 354 0070 1343     		orrs	r3, r2
 355 0072 7B60     		str	r3, [r7, #4]
 337:Generated_Source\PSoC4/CapSense_CSD.c ****     CapSense_CSD_CMOD_CONNECTION_REG = newRegValue;
 356              		.loc 1 337 0
 357 0074 104B     		ldr	r3, .L5+28
 358 0076 7A68     		ldr	r2, [r7, #4]
 359 0078 1A60     		str	r2, [r3]
 338:Generated_Source\PSoC4/CapSense_CSD.c **** 
 339:Generated_Source\PSoC4/CapSense_CSD.c ****     /* Configure Dead Band PWM if it is enabled */
 340:Generated_Source\PSoC4/CapSense_CSD.c ****     #if(CapSense_CSD_CSD_4B_PWM_MODE != CapSense_CSD__PWM_OFF)
 341:Generated_Source\PSoC4/CapSense_CSD.c ****         CapSense_CSD_CSD_4B_PWM_REG = CapSense_CSD_DEFAULT_CSD_4B_PWM_CONFIG;
 342:Generated_Source\PSoC4/CapSense_CSD.c ****     #endif /* (CapSense_CSD_CSD_4B_PWM_MODE != CapSense_CSD__PWM_OFF) */
 343:Generated_Source\PSoC4/CapSense_CSD.c **** 
 344:Generated_Source\PSoC4/CapSense_CSD.c ****     /* Setup ISR */
 345:Generated_Source\PSoC4/CapSense_CSD.c ****     CyIntDisable(CapSense_CSD_ISR_NUMBER);
 360              		.loc 1 345 0
 361 007a 0F20     		movs	r0, #15
 362 007c FFF7FEFF 		bl	CyIntDisable
 346:Generated_Source\PSoC4/CapSense_CSD.c ****     #if !defined(CY_EXTERNAL_INTERRUPT_CONFIG)
 347:Generated_Source\PSoC4/CapSense_CSD.c ****         (void)CyIntSetVector(CapSense_CSD_ISR_NUMBER, &CapSense_CSD_ISR);
 363              		.loc 1 347 0
 364 0080 0F4B     		ldr	r3, .L5+36
 365 0082 1900     		movs	r1, r3
 366 0084 0F20     		movs	r0, #15
 367 0086 FFF7FEFF 		bl	CyIntSetVector
 348:Generated_Source\PSoC4/CapSense_CSD.c ****         CyIntSetPriority(CapSense_CSD_ISR_NUMBER, CapSense_CSD_ISR_PRIORITY);
 368              		.loc 1 348 0
 369 008a 0321     		movs	r1, #3
 370 008c 0F20     		movs	r0, #15
 371 008e FFF7FEFF 		bl	CyIntSetPriority
 349:Generated_Source\PSoC4/CapSense_CSD.c ****     #endif /* (CY_EXTERNAL_INTERRUPT_CONFIG) */
 350:Generated_Source\PSoC4/CapSense_CSD.c **** }
 372              		.loc 1 350 0
 373 0092 C046     		nop
 374 0094 BD46     		mov	sp, r7
 375 0096 02B0     		add	sp, sp, #8
 376              		@ sp needed
 377 0098 80BD     		pop	{r7, pc}
 378              	.L6:
 379 009a C046     		.align	2
 380              	.L5:
 381 009c 00FF0840 		.word	1074331392
 382 00a0 00000000 		.word	CapSense_CSD_csdTrim1
 383 00a4 62F1FF0F 		.word	268431714
 384 00a8 08000840 		.word	1074266120
 385 00ac 00020001 		.word	16777728
ARM GAS  C:\Users\SHOZO\AppData\Local\Temp\cc2WcnYb.s 			page 14


 386 00b0 04000840 		.word	1074266116
 387 00b4 0008A001 		.word	27265024
 388 00b8 10000140 		.word	1073807376
 389 00bc FFF0FFFF 		.word	-3841
 390 00c0 00000000 		.word	CapSense_CSD_ISR
 391              		.cfi_endproc
 392              	.LFE33:
 393              		.size	CapSense_CSD_CsdHwBlockInit, .-CapSense_CSD_CsdHwBlockInit
 394              		.section	.text.CapSense_CSD_Enable,"ax",%progbits
 395              		.align	2
 396              		.global	CapSense_CSD_Enable
 397              		.code	16
 398              		.thumb_func
 399              		.type	CapSense_CSD_Enable, %function
 400              	CapSense_CSD_Enable:
 401              	.LFB34:
 351:Generated_Source\PSoC4/CapSense_CSD.c **** 
 352:Generated_Source\PSoC4/CapSense_CSD.c **** 
 353:Generated_Source\PSoC4/CapSense_CSD.c **** /*******************************************************************************
 354:Generated_Source\PSoC4/CapSense_CSD.c **** * Function Name: CapSense_CSD_Enable
 355:Generated_Source\PSoC4/CapSense_CSD.c **** ********************************************************************************
 356:Generated_Source\PSoC4/CapSense_CSD.c **** *
 357:Generated_Source\PSoC4/CapSense_CSD.c **** * Summary:
 358:Generated_Source\PSoC4/CapSense_CSD.c **** *  Enables the CSD block and related resources to an active mode.
 359:Generated_Source\PSoC4/CapSense_CSD.c **** *
 360:Generated_Source\PSoC4/CapSense_CSD.c **** * Parameters:
 361:Generated_Source\PSoC4/CapSense_CSD.c **** *  None
 362:Generated_Source\PSoC4/CapSense_CSD.c **** *
 363:Generated_Source\PSoC4/CapSense_CSD.c **** * Return:
 364:Generated_Source\PSoC4/CapSense_CSD.c **** *  None
 365:Generated_Source\PSoC4/CapSense_CSD.c **** *
 366:Generated_Source\PSoC4/CapSense_CSD.c **** * Global Variables:
 367:Generated_Source\PSoC4/CapSense_CSD.c **** *  None.
 368:Generated_Source\PSoC4/CapSense_CSD.c **** *
 369:Generated_Source\PSoC4/CapSense_CSD.c **** * Side Effects:
 370:Generated_Source\PSoC4/CapSense_CSD.c **** *  None
 371:Generated_Source\PSoC4/CapSense_CSD.c **** *
 372:Generated_Source\PSoC4/CapSense_CSD.c **** *******************************************************************************/
 373:Generated_Source\PSoC4/CapSense_CSD.c **** void CapSense_CSD_Enable(void)
 374:Generated_Source\PSoC4/CapSense_CSD.c **** {
 402              		.loc 1 374 0
 403              		.cfi_startproc
 404              		@ args = 0, pretend = 0, frame = 8
 405              		@ frame_needed = 1, uses_anonymous_args = 0
 406 0000 80B5     		push	{r7, lr}
 407              		.cfi_def_cfa_offset 8
 408              		.cfi_offset 7, -8
 409              		.cfi_offset 14, -4
 410 0002 82B0     		sub	sp, sp, #8
 411              		.cfi_def_cfa_offset 16
 412 0004 00AF     		add	r7, sp, #0
 413              		.cfi_def_cfa_register 7
 375:Generated_Source\PSoC4/CapSense_CSD.c ****     uint32 newRegValue;
 376:Generated_Source\PSoC4/CapSense_CSD.c **** 
 377:Generated_Source\PSoC4/CapSense_CSD.c ****     /* Enable Clocks */
 378:Generated_Source\PSoC4/CapSense_CSD.c ****     CapSense_CSD_SenseClk_Stop();
 414              		.loc 1 378 0
ARM GAS  C:\Users\SHOZO\AppData\Local\Temp\cc2WcnYb.s 			page 15


 415 0006 FFF7FEFF 		bl	CapSense_CSD_SenseClk_Stop
 379:Generated_Source\PSoC4/CapSense_CSD.c ****     CapSense_CSD_SampleClk_Stop();
 416              		.loc 1 379 0
 417 000a FFF7FEFF 		bl	CapSense_CSD_SampleClk_Stop
 380:Generated_Source\PSoC4/CapSense_CSD.c **** 
 381:Generated_Source\PSoC4/CapSense_CSD.c ****     CapSense_CSD_SampleClk_SetDividerValue((uint16)CapSense_CSD_INITIAL_CLK_DIVIDER);
 418              		.loc 1 381 0
 419 000e 0021     		movs	r1, #0
 420 0010 0020     		movs	r0, #0
 421 0012 FFF7FEFF 		bl	CapSense_CSD_SampleClk_SetFractionalDividerRegister
 382:Generated_Source\PSoC4/CapSense_CSD.c ****     CapSense_CSD_SenseClk_SetDividerValue((uint16)CapSense_CSD_INITIAL_CLK_DIVIDER);
 422              		.loc 1 382 0
 423 0016 0021     		movs	r1, #0
 424 0018 0020     		movs	r0, #0
 425 001a FFF7FEFF 		bl	CapSense_CSD_SenseClk_SetFractionalDividerRegister
 383:Generated_Source\PSoC4/CapSense_CSD.c **** 
 384:Generated_Source\PSoC4/CapSense_CSD.c ****     #if (0u == CapSense_CSD_IS_M0S8PERI_BLOCK)
 385:Generated_Source\PSoC4/CapSense_CSD.c ****         CapSense_CSD_SenseClk_Start();
 426              		.loc 1 385 0
 427 001e FFF7FEFF 		bl	CapSense_CSD_SenseClk_Start
 386:Generated_Source\PSoC4/CapSense_CSD.c ****         CapSense_CSD_SampleClk_Start();
 428              		.loc 1 386 0
 429 0022 FFF7FEFF 		bl	CapSense_CSD_SampleClk_Start
 387:Generated_Source\PSoC4/CapSense_CSD.c ****     #else
 388:Generated_Source\PSoC4/CapSense_CSD.c ****         CapSense_CSD_SampleClk_Start();
 389:Generated_Source\PSoC4/CapSense_CSD.c ****         CapSense_CSD_SenseClk_StartEx(CapSense_CSD_SampleClk__DIV_ID);
 390:Generated_Source\PSoC4/CapSense_CSD.c ****     #endif /* (0u == CapSense_CSD_IS_M0S8PERI_BLOCK) */
 391:Generated_Source\PSoC4/CapSense_CSD.c **** 
 392:Generated_Source\PSoC4/CapSense_CSD.c ****     /* Enable the CSD block */
 393:Generated_Source\PSoC4/CapSense_CSD.c ****     newRegValue = CapSense_CSD_CSD_CFG_REG;
 430              		.loc 1 393 0
 431 0026 084B     		ldr	r3, .L8
 432 0028 1B68     		ldr	r3, [r3]
 433 002a 7B60     		str	r3, [r7, #4]
 394:Generated_Source\PSoC4/CapSense_CSD.c ****     newRegValue |= (CapSense_CSD_CSD_CFG_ENABLE | CapSense_CSD_CSD_CFG_SENSE_COMP_EN
 434              		.loc 1 394 0
 435 002c 7B68     		ldr	r3, [r7, #4]
 436 002e 074A     		ldr	r2, .L8+4
 437 0030 1343     		orrs	r3, r2
 438 0032 7B60     		str	r3, [r7, #4]
 395:Generated_Source\PSoC4/CapSense_CSD.c ****                                                    | CapSense_CSD_CSD_CFG_SENSE_EN);
 396:Generated_Source\PSoC4/CapSense_CSD.c ****     CapSense_CSD_CSD_CFG_REG = newRegValue;
 439              		.loc 1 396 0
 440 0034 044B     		ldr	r3, .L8
 441 0036 7A68     		ldr	r2, [r7, #4]
 442 0038 1A60     		str	r2, [r3]
 397:Generated_Source\PSoC4/CapSense_CSD.c **** 
 398:Generated_Source\PSoC4/CapSense_CSD.c ****     /* Enable interrupt */
 399:Generated_Source\PSoC4/CapSense_CSD.c ****     CyIntEnable(CapSense_CSD_ISR_NUMBER);
 443              		.loc 1 399 0
 444 003a 0F20     		movs	r0, #15
 445 003c FFF7FEFF 		bl	CyIntEnable
 400:Generated_Source\PSoC4/CapSense_CSD.c **** }
 446              		.loc 1 400 0
 447 0040 C046     		nop
 448 0042 BD46     		mov	sp, r7
 449 0044 02B0     		add	sp, sp, #8
ARM GAS  C:\Users\SHOZO\AppData\Local\Temp\cc2WcnYb.s 			page 16


 450              		@ sp needed
 451 0046 80BD     		pop	{r7, pc}
 452              	.L9:
 453              		.align	2
 454              	.L8:
 455 0048 04000840 		.word	1074266116
 456 004c 00100880 		.word	-2146955264
 457              		.cfi_endproc
 458              	.LFE34:
 459              		.size	CapSense_CSD_Enable, .-CapSense_CSD_Enable
 460              		.section	.text.CapSense_CSD_Start,"ax",%progbits
 461              		.align	2
 462              		.global	CapSense_CSD_Start
 463              		.code	16
 464              		.thumb_func
 465              		.type	CapSense_CSD_Start, %function
 466              	CapSense_CSD_Start:
 467              	.LFB35:
 401:Generated_Source\PSoC4/CapSense_CSD.c **** 
 402:Generated_Source\PSoC4/CapSense_CSD.c **** 
 403:Generated_Source\PSoC4/CapSense_CSD.c **** /*******************************************************************************
 404:Generated_Source\PSoC4/CapSense_CSD.c **** * Function Name: CapSense_CSD_Start
 405:Generated_Source\PSoC4/CapSense_CSD.c **** ********************************************************************************
 406:Generated_Source\PSoC4/CapSense_CSD.c **** *
 407:Generated_Source\PSoC4/CapSense_CSD.c **** * Summary:
 408:Generated_Source\PSoC4/CapSense_CSD.c **** *  This is the preferred method to begin the component operation. CapSense_Start()
 409:Generated_Source\PSoC4/CapSense_CSD.c **** *  calls the CapSense_Init() function, and then calls the CapSense_Enable()
 410:Generated_Source\PSoC4/CapSense_CSD.c **** *  function. Initializes the registers and starts the CSD method of the CapSense
 411:Generated_Source\PSoC4/CapSense_CSD.c **** *  component. Resets all the sensors to an inactive state. Enables interrupts for
 412:Generated_Source\PSoC4/CapSense_CSD.c **** *  sensors scanning. When the SmartSense tuning mode is selected, the tuning procedure
 413:Generated_Source\PSoC4/CapSense_CSD.c **** *  is applied for all the sensors. The CapSense_Start() routine must be called before
 414:Generated_Source\PSoC4/CapSense_CSD.c **** *  any other API routines.
 415:Generated_Source\PSoC4/CapSense_CSD.c **** *
 416:Generated_Source\PSoC4/CapSense_CSD.c **** * Parameters:
 417:Generated_Source\PSoC4/CapSense_CSD.c **** *  None
 418:Generated_Source\PSoC4/CapSense_CSD.c **** *
 419:Generated_Source\PSoC4/CapSense_CSD.c **** * Return:
 420:Generated_Source\PSoC4/CapSense_CSD.c **** *  None
 421:Generated_Source\PSoC4/CapSense_CSD.c **** *
 422:Generated_Source\PSoC4/CapSense_CSD.c **** * Global Variables:
 423:Generated_Source\PSoC4/CapSense_CSD.c **** *   CapSense_CSD_initVar - used to check the initial configuration,
 424:Generated_Source\PSoC4/CapSense_CSD.c **** *   modified on the first function call.
 425:Generated_Source\PSoC4/CapSense_CSD.c **** *  CapSense_CSD_lowLevelTuningDone - Used to notify the Tuner GUI that
 426:Generated_Source\PSoC4/CapSense_CSD.c **** *   tuning of the scanning parameters is done.
 427:Generated_Source\PSoC4/CapSense_CSD.c **** *
 428:Generated_Source\PSoC4/CapSense_CSD.c **** * Side Effects:
 429:Generated_Source\PSoC4/CapSense_CSD.c **** *  None
 430:Generated_Source\PSoC4/CapSense_CSD.c **** *
 431:Generated_Source\PSoC4/CapSense_CSD.c **** *******************************************************************************/
 432:Generated_Source\PSoC4/CapSense_CSD.c **** void CapSense_CSD_Start(void)
 433:Generated_Source\PSoC4/CapSense_CSD.c **** {
 468              		.loc 1 433 0
 469              		.cfi_startproc
 470              		@ args = 0, pretend = 0, frame = 0
 471              		@ frame_needed = 1, uses_anonymous_args = 0
 472 0000 80B5     		push	{r7, lr}
 473              		.cfi_def_cfa_offset 8
ARM GAS  C:\Users\SHOZO\AppData\Local\Temp\cc2WcnYb.s 			page 17


 474              		.cfi_offset 7, -8
 475              		.cfi_offset 14, -4
 476 0002 00AF     		add	r7, sp, #0
 477              		.cfi_def_cfa_register 7
 434:Generated_Source\PSoC4/CapSense_CSD.c **** 
 435:Generated_Source\PSoC4/CapSense_CSD.c ****     static uint8 CapSense_CSD_initVar = 0u;
 436:Generated_Source\PSoC4/CapSense_CSD.c **** 
 437:Generated_Source\PSoC4/CapSense_CSD.c ****     #if((0u != CapSense_CSD_AUTOCALIBRATION_ENABLE) && (CapSense_CSD_TUNING_METHOD != CapSense_CSD_
 438:Generated_Source\PSoC4/CapSense_CSD.c ****         uint32 curSensor;
 439:Generated_Source\PSoC4/CapSense_CSD.c ****         uint32 rawLevel;
 440:Generated_Source\PSoC4/CapSense_CSD.c ****         uint32 widget;
 441:Generated_Source\PSoC4/CapSense_CSD.c ****     #endif /* ((0u != CapSense_CSD_AUTOCALIBRATION_ENABLE) && (CapSense_CSD_TUNING_METHOD != CapSen
 442:Generated_Source\PSoC4/CapSense_CSD.c **** 
 443:Generated_Source\PSoC4/CapSense_CSD.c ****     if (CapSense_CSD_initVar == 0u)
 478              		.loc 1 443 0
 479 0004 0C4B     		ldr	r3, .L12
 480 0006 1B78     		ldrb	r3, [r3]
 481 0008 002B     		cmp	r3, #0
 482 000a 04D1     		bne	.L11
 444:Generated_Source\PSoC4/CapSense_CSD.c ****     {
 445:Generated_Source\PSoC4/CapSense_CSD.c ****         CapSense_CSD_Init();
 483              		.loc 1 445 0
 484 000c FFF7FEFF 		bl	CapSense_CSD_Init
 446:Generated_Source\PSoC4/CapSense_CSD.c ****         CapSense_CSD_initVar = 1u;
 485              		.loc 1 446 0
 486 0010 094B     		ldr	r3, .L12
 487 0012 0122     		movs	r2, #1
 488 0014 1A70     		strb	r2, [r3]
 489              	.L11:
 447:Generated_Source\PSoC4/CapSense_CSD.c ****     }
 448:Generated_Source\PSoC4/CapSense_CSD.c ****     CapSense_CSD_Enable();
 490              		.loc 1 448 0
 491 0016 FFF7FEFF 		bl	CapSense_CSD_Enable
 449:Generated_Source\PSoC4/CapSense_CSD.c **** 
 450:Generated_Source\PSoC4/CapSense_CSD.c ****     /* AutoTunning start */
 451:Generated_Source\PSoC4/CapSense_CSD.c ****     #if(CapSense_CSD_TUNING_METHOD == CapSense_CSD__TUNING_AUTO)
 452:Generated_Source\PSoC4/CapSense_CSD.c ****         #if(0u != CapSense_CSD_CSHL_API_GENERATE)
 453:Generated_Source\PSoC4/CapSense_CSD.c ****             CapSense_CSD_AutoTune();
 492              		.loc 1 453 0
 493 001a FFF7FEFF 		bl	CapSense_CSD_AutoTune
 454:Generated_Source\PSoC4/CapSense_CSD.c ****             CapSense_CSD_lowLevelTuningDone = 1u;
 494              		.loc 1 454 0
 495 001e 074B     		ldr	r3, .L12+4
 496 0020 0122     		movs	r2, #1
 497 0022 1A70     		strb	r2, [r3]
 455:Generated_Source\PSoC4/CapSense_CSD.c ****         #endif /* (0u != CapSense_CSD_CSHL_API_GENERATE) */
 456:Generated_Source\PSoC4/CapSense_CSD.c ****     #else
 457:Generated_Source\PSoC4/CapSense_CSD.c ****         #if(0u != CapSense_CSD_AUTOCALIBRATION_ENABLE)
 458:Generated_Source\PSoC4/CapSense_CSD.c **** 
 459:Generated_Source\PSoC4/CapSense_CSD.c ****             #if(CapSense_CSD_IDAC_CNT > 1u)
 460:Generated_Source\PSoC4/CapSense_CSD.c ****                 CapSense_CSD_CSD_IDAC_REG &= ~(CapSense_CSD_CSD_IDAC2_MODE_MASK);
 461:Generated_Source\PSoC4/CapSense_CSD.c ****             #endif /* (CapSense_CSD_IDAC_CNT > 1u) */
 462:Generated_Source\PSoC4/CapSense_CSD.c **** 
 463:Generated_Source\PSoC4/CapSense_CSD.c ****             for(curSensor = 0u; curSensor < CapSense_CSD_TOTAL_SCANSLOT_COUNT; curSensor++)
 464:Generated_Source\PSoC4/CapSense_CSD.c ****             {
 465:Generated_Source\PSoC4/CapSense_CSD.c ****                 widget = CapSense_CSD_widgetNumber[curSensor];
 466:Generated_Source\PSoC4/CapSense_CSD.c ****                 rawLevel = CapSense_CSD_widgetResolution[widget] >> CapSense_CSD_RESOLUTION_OFFSET;
ARM GAS  C:\Users\SHOZO\AppData\Local\Temp\cc2WcnYb.s 			page 18


 467:Generated_Source\PSoC4/CapSense_CSD.c **** 
 468:Generated_Source\PSoC4/CapSense_CSD.c ****                 /* Calibration level should be equal to 85% from scanning resolution */
 469:Generated_Source\PSoC4/CapSense_CSD.c ****                 rawLevel = (rawLevel * 85u) / 100u;
 470:Generated_Source\PSoC4/CapSense_CSD.c **** 
 471:Generated_Source\PSoC4/CapSense_CSD.c ****                 CapSense_CSD_CalibrateSensor(curSensor, rawLevel, CapSense_CSD_modulationIDAC);
 472:Generated_Source\PSoC4/CapSense_CSD.c ****             }
 473:Generated_Source\PSoC4/CapSense_CSD.c **** 
 474:Generated_Source\PSoC4/CapSense_CSD.c ****             #if(0u != CapSense_CSD_TOTAL_CENTROIDS_COUNT)
 475:Generated_Source\PSoC4/CapSense_CSD.c ****                 CapSense_CSD_NormalizeWidgets(CapSense_CSD_END_OF_WIDGETS_INDEX, CapSense_CSD_modul
 476:Generated_Source\PSoC4/CapSense_CSD.c ****             #endif /* (0u != CapSense_CSD_TOTAL_CENTROIDS_COUNT)  */
 477:Generated_Source\PSoC4/CapSense_CSD.c **** 
 478:Generated_Source\PSoC4/CapSense_CSD.c ****             #if(CapSense_CSD_IDAC_CNT > 1u)
 479:Generated_Source\PSoC4/CapSense_CSD.c ****                 for(curSensor = 0u; curSensor < CapSense_CSD_TOTAL_SCANSLOT_COUNT; curSensor++)
 480:Generated_Source\PSoC4/CapSense_CSD.c ****                 {
 481:Generated_Source\PSoC4/CapSense_CSD.c ****                     CapSense_CSD_compensationIDAC[curSensor] = CapSense_CSD_modulationIDAC[curSenso
 482:Generated_Source\PSoC4/CapSense_CSD.c ****                     CapSense_CSD_modulationIDAC[curSensor] = (CapSense_CSD_modulationIDAC[curSensor
 483:Generated_Source\PSoC4/CapSense_CSD.c ****                 }
 484:Generated_Source\PSoC4/CapSense_CSD.c ****                 CapSense_CSD_CSD_IDAC_REG |= CapSense_CSD_CSD_IDAC2_MODE_FIXED;
 485:Generated_Source\PSoC4/CapSense_CSD.c ****             #endif /* (CapSense_CSD_IDAC_CNT > 1u) */
 486:Generated_Source\PSoC4/CapSense_CSD.c **** 
 487:Generated_Source\PSoC4/CapSense_CSD.c ****         #endif /* (0u != CapSense_CSD_AUTOCALIBRATION_ENABLE) */
 488:Generated_Source\PSoC4/CapSense_CSD.c **** 
 489:Generated_Source\PSoC4/CapSense_CSD.c ****     #endif /* ((CapSense_CSD_TUNING_METHOD == CapSense_CSD__TUNING_AUTO) */
 490:Generated_Source\PSoC4/CapSense_CSD.c **** 
 491:Generated_Source\PSoC4/CapSense_CSD.c ****     /* Initialize Advanced Centroid */
 492:Generated_Source\PSoC4/CapSense_CSD.c ****     #if(CapSense_CSD_TOTAL_TRACKPAD_GESTURES_COUNT > 0u)
 493:Generated_Source\PSoC4/CapSense_CSD.c ****         CapSense_CSD_AdvancedCentroidInit();
 494:Generated_Source\PSoC4/CapSense_CSD.c ****     #endif /* (CapSense_CSD_TOTAL_TRACKPAD_GESTURES_COUNT > 0u) */
 495:Generated_Source\PSoC4/CapSense_CSD.c **** 
 496:Generated_Source\PSoC4/CapSense_CSD.c ****     /* Connect sense comparator input to AMUXA */
 497:Generated_Source\PSoC4/CapSense_CSD.c ****     CapSense_CSD_CSD_CFG_REG |= CapSense_CSD_CSD_CFG_SENSE_INSEL;
 498              		.loc 1 497 0
 499 0024 064B     		ldr	r3, .L12+8
 500 0026 064A     		ldr	r2, .L12+8
 501 0028 1268     		ldr	r2, [r2]
 502 002a 8021     		movs	r1, #128
 503 002c C903     		lsls	r1, r1, #15
 504 002e 0A43     		orrs	r2, r1
 505 0030 1A60     		str	r2, [r3]
 498:Generated_Source\PSoC4/CapSense_CSD.c **** }
 506              		.loc 1 498 0
 507 0032 C046     		nop
 508 0034 BD46     		mov	sp, r7
 509              		@ sp needed
 510 0036 80BD     		pop	{r7, pc}
 511              	.L13:
 512              		.align	2
 513              	.L12:
 514 0038 20000000 		.word	CapSense_CSD_initVar.5386
 515 003c 00000000 		.word	CapSense_CSD_lowLevelTuningDone
 516 0040 04000840 		.word	1074266116
 517              		.cfi_endproc
 518              	.LFE35:
 519              		.size	CapSense_CSD_Start, .-CapSense_CSD_Start
 520              		.section	.text.CapSense_CSD_Stop,"ax",%progbits
 521              		.align	2
 522              		.global	CapSense_CSD_Stop
ARM GAS  C:\Users\SHOZO\AppData\Local\Temp\cc2WcnYb.s 			page 19


 523              		.code	16
 524              		.thumb_func
 525              		.type	CapSense_CSD_Stop, %function
 526              	CapSense_CSD_Stop:
 527              	.LFB36:
 499:Generated_Source\PSoC4/CapSense_CSD.c **** 
 500:Generated_Source\PSoC4/CapSense_CSD.c **** 
 501:Generated_Source\PSoC4/CapSense_CSD.c **** /*******************************************************************************
 502:Generated_Source\PSoC4/CapSense_CSD.c **** * Function Name: CapSense_CSD_Stop
 503:Generated_Source\PSoC4/CapSense_CSD.c **** ********************************************************************************
 504:Generated_Source\PSoC4/CapSense_CSD.c **** *
 505:Generated_Source\PSoC4/CapSense_CSD.c **** * Summary:
 506:Generated_Source\PSoC4/CapSense_CSD.c **** *  Stops the sensor scanning, disables component interrupts, and resets all the
 507:Generated_Source\PSoC4/CapSense_CSD.c **** *  sensors to an inactive state. Disables the Active mode power template bits for
 508:Generated_Source\PSoC4/CapSense_CSD.c **** *  the subcomponents used within CapSense.
 509:Generated_Source\PSoC4/CapSense_CSD.c **** *
 510:Generated_Source\PSoC4/CapSense_CSD.c **** * Parameters:
 511:Generated_Source\PSoC4/CapSense_CSD.c **** *  None
 512:Generated_Source\PSoC4/CapSense_CSD.c **** *
 513:Generated_Source\PSoC4/CapSense_CSD.c **** * Return:
 514:Generated_Source\PSoC4/CapSense_CSD.c **** *  None
 515:Generated_Source\PSoC4/CapSense_CSD.c **** *
 516:Generated_Source\PSoC4/CapSense_CSD.c **** * Global Variables:
 517:Generated_Source\PSoC4/CapSense_CSD.c **** *  CapSense_CSD_csdTrim1 - Contains the IDAC trim register value for the Sourcing Mode.
 518:Generated_Source\PSoC4/CapSense_CSD.c **** *  CapSense_CSD_csdTrim2 - Contains the IDAC trim register value for vSinking Mode.
 519:Generated_Source\PSoC4/CapSense_CSD.c **** *
 520:Generated_Source\PSoC4/CapSense_CSD.c **** * Side Effects:
 521:Generated_Source\PSoC4/CapSense_CSD.c **** *  This function should be called after scans are completed.
 522:Generated_Source\PSoC4/CapSense_CSD.c **** *
 523:Generated_Source\PSoC4/CapSense_CSD.c **** *******************************************************************************/
 524:Generated_Source\PSoC4/CapSense_CSD.c **** void CapSense_CSD_Stop(void)
 525:Generated_Source\PSoC4/CapSense_CSD.c **** {
 528              		.loc 1 525 0
 529              		.cfi_startproc
 530              		@ args = 0, pretend = 0, frame = 0
 531              		@ frame_needed = 1, uses_anonymous_args = 0
 532 0000 80B5     		push	{r7, lr}
 533              		.cfi_def_cfa_offset 8
 534              		.cfi_offset 7, -8
 535              		.cfi_offset 14, -4
 536 0002 00AF     		add	r7, sp, #0
 537              		.cfi_def_cfa_register 7
 526:Generated_Source\PSoC4/CapSense_CSD.c ****     /* Disable interrupt */
 527:Generated_Source\PSoC4/CapSense_CSD.c ****     CyIntDisable(CapSense_CSD_ISR_NUMBER);
 538              		.loc 1 527 0
 539 0004 0F20     		movs	r0, #15
 540 0006 FFF7FEFF 		bl	CyIntDisable
 528:Generated_Source\PSoC4/CapSense_CSD.c **** 
 529:Generated_Source\PSoC4/CapSense_CSD.c ****     CapSense_CSD_CSD_CFG_REG &= ~(CapSense_CSD_CSD_CFG_SENSE_COMP_EN | CapSense_CSD_CSD_CFG_SENSE_E
 541              		.loc 1 529 0
 542 000a 094B     		ldr	r3, .L15
 543 000c 084A     		ldr	r2, .L15
 544 000e 1268     		ldr	r2, [r2]
 545 0010 0849     		ldr	r1, .L15+4
 546 0012 0A40     		ands	r2, r1
 547 0014 1A60     		str	r2, [r3]
 530:Generated_Source\PSoC4/CapSense_CSD.c **** 
ARM GAS  C:\Users\SHOZO\AppData\Local\Temp\cc2WcnYb.s 			page 20


 531:Generated_Source\PSoC4/CapSense_CSD.c ****     #if(CapSense_CSD_IDAC_CNT == 2u)
 532:Generated_Source\PSoC4/CapSense_CSD.c ****         CapSense_CSD_CSD_CFG_REG &= ~(CapSense_CSD_CSD_CFG_ENABLE);
 548              		.loc 1 532 0
 549 0016 064B     		ldr	r3, .L15
 550 0018 054A     		ldr	r2, .L15
 551 001a 1268     		ldr	r2, [r2]
 552 001c 5200     		lsls	r2, r2, #1
 553 001e 5208     		lsrs	r2, r2, #1
 554 0020 1A60     		str	r2, [r3]
 533:Generated_Source\PSoC4/CapSense_CSD.c ****     #endif /* (CapSense_CSD_IDAC_CNT == 2u) */
 534:Generated_Source\PSoC4/CapSense_CSD.c **** 
 535:Generated_Source\PSoC4/CapSense_CSD.c ****     /* Disable the Clocks */
 536:Generated_Source\PSoC4/CapSense_CSD.c ****     CapSense_CSD_SenseClk_Stop();
 555              		.loc 1 536 0
 556 0022 FFF7FEFF 		bl	CapSense_CSD_SenseClk_Stop
 537:Generated_Source\PSoC4/CapSense_CSD.c ****     CapSense_CSD_SampleClk_Stop();
 557              		.loc 1 537 0
 558 0026 FFF7FEFF 		bl	CapSense_CSD_SampleClk_Stop
 538:Generated_Source\PSoC4/CapSense_CSD.c **** }
 559              		.loc 1 538 0
 560 002a C046     		nop
 561 002c BD46     		mov	sp, r7
 562              		@ sp needed
 563 002e 80BD     		pop	{r7, pc}
 564              	.L16:
 565              		.align	2
 566              	.L15:
 567 0030 04000840 		.word	1074266116
 568 0034 FFEFF7FF 		.word	-528385
 569              		.cfi_endproc
 570              	.LFE36:
 571              		.size	CapSense_CSD_Stop, .-CapSense_CSD_Stop
 572              		.section	.text.CapSense_CSD_FindNextSensor,"ax",%progbits
 573              		.align	2
 574              		.global	CapSense_CSD_FindNextSensor
 575              		.code	16
 576              		.thumb_func
 577              		.type	CapSense_CSD_FindNextSensor, %function
 578              	CapSense_CSD_FindNextSensor:
 579              	.LFB37:
 539:Generated_Source\PSoC4/CapSense_CSD.c **** 
 540:Generated_Source\PSoC4/CapSense_CSD.c **** 
 541:Generated_Source\PSoC4/CapSense_CSD.c **** /*******************************************************************************
 542:Generated_Source\PSoC4/CapSense_CSD.c **** * Function Name: CapSense_CSD_FindNextSensor
 543:Generated_Source\PSoC4/CapSense_CSD.c **** ********************************************************************************
 544:Generated_Source\PSoC4/CapSense_CSD.c **** *
 545:Generated_Source\PSoC4/CapSense_CSD.c **** * Summary:
 546:Generated_Source\PSoC4/CapSense_CSD.c **** *  Finds the next sensor to scan.
 547:Generated_Source\PSoC4/CapSense_CSD.c **** *
 548:Generated_Source\PSoC4/CapSense_CSD.c **** * Parameters:
 549:Generated_Source\PSoC4/CapSense_CSD.c **** *  snsIndex:  Current index of sensor.
 550:Generated_Source\PSoC4/CapSense_CSD.c **** *
 551:Generated_Source\PSoC4/CapSense_CSD.c **** * Return:
 552:Generated_Source\PSoC4/CapSense_CSD.c **** *  Returns the next sensor index to scan.
 553:Generated_Source\PSoC4/CapSense_CSD.c **** *
 554:Generated_Source\PSoC4/CapSense_CSD.c **** * Global Variables:
 555:Generated_Source\PSoC4/CapSense_CSD.c **** *  CapSense_CSD_sensorEnableMask[] - used to store bit masks of the enabled sensors.
ARM GAS  C:\Users\SHOZO\AppData\Local\Temp\cc2WcnYb.s 			page 21


 556:Generated_Source\PSoC4/CapSense_CSD.c **** *
 557:Generated_Source\PSoC4/CapSense_CSD.c **** * Side Effects:
 558:Generated_Source\PSoC4/CapSense_CSD.c **** *  This function affects the  current scanning and should not
 559:Generated_Source\PSoC4/CapSense_CSD.c **** *  be used outside the component.
 560:Generated_Source\PSoC4/CapSense_CSD.c **** *
 561:Generated_Source\PSoC4/CapSense_CSD.c **** *******************************************************************************/
 562:Generated_Source\PSoC4/CapSense_CSD.c **** uint8 CapSense_CSD_FindNextSensor(uint8 snsIndex)
 563:Generated_Source\PSoC4/CapSense_CSD.c **** {
 580              		.loc 1 563 0
 581              		.cfi_startproc
 582              		@ args = 0, pretend = 0, frame = 16
 583              		@ frame_needed = 1, uses_anonymous_args = 0
 584 0000 80B5     		push	{r7, lr}
 585              		.cfi_def_cfa_offset 8
 586              		.cfi_offset 7, -8
 587              		.cfi_offset 14, -4
 588 0002 84B0     		sub	sp, sp, #16
 589              		.cfi_def_cfa_offset 24
 590 0004 00AF     		add	r7, sp, #0
 591              		.cfi_def_cfa_register 7
 592 0006 0200     		movs	r2, r0
 593 0008 FB1D     		adds	r3, r7, #7
 594 000a 1A70     		strb	r2, [r3]
 595              	.L20:
 564:Generated_Source\PSoC4/CapSense_CSD.c ****     uint32 enableFlag;
 565:Generated_Source\PSoC4/CapSense_CSD.c **** 
 566:Generated_Source\PSoC4/CapSense_CSD.c ****     /* Check if sensor enabled */
 567:Generated_Source\PSoC4/CapSense_CSD.c ****     do
 568:Generated_Source\PSoC4/CapSense_CSD.c ****     {
 569:Generated_Source\PSoC4/CapSense_CSD.c ****         /* Proceed with next sensor */
 570:Generated_Source\PSoC4/CapSense_CSD.c ****         snsIndex++;
 596              		.loc 1 570 0
 597 000c FB1D     		adds	r3, r7, #7
 598 000e 1A78     		ldrb	r2, [r3]
 599 0010 FB1D     		adds	r3, r7, #7
 600 0012 0132     		adds	r2, r2, #1
 601 0014 1A70     		strb	r2, [r3]
 571:Generated_Source\PSoC4/CapSense_CSD.c ****         if(snsIndex == CapSense_CSD_TOTAL_SENSOR_COUNT)
 602              		.loc 1 571 0
 603 0016 FB1D     		adds	r3, r7, #7
 604 0018 1B78     		ldrb	r3, [r3]
 605 001a 0E2B     		cmp	r3, #14
 606 001c 0CD0     		beq	.L22
 572:Generated_Source\PSoC4/CapSense_CSD.c ****         {
 573:Generated_Source\PSoC4/CapSense_CSD.c ****             break;
 574:Generated_Source\PSoC4/CapSense_CSD.c ****         }
 575:Generated_Source\PSoC4/CapSense_CSD.c ****         enableFlag = CapSense_CSD_GetBitValue(CapSense_CSD_sensorEnableMask, (uint32)snsIndex);
 607              		.loc 1 575 0
 608 001e FB1D     		adds	r3, r7, #7
 609 0020 1A78     		ldrb	r2, [r3]
 610 0022 094B     		ldr	r3, .L23
 611 0024 1100     		movs	r1, r2
 612 0026 1800     		movs	r0, r3
 613 0028 FFF7FEFF 		bl	CapSense_CSD_GetBitValue
 614 002c 0300     		movs	r3, r0
 615 002e FB60     		str	r3, [r7, #12]
 576:Generated_Source\PSoC4/CapSense_CSD.c ****     }
ARM GAS  C:\Users\SHOZO\AppData\Local\Temp\cc2WcnYb.s 			page 22


 577:Generated_Source\PSoC4/CapSense_CSD.c ****     while(enableFlag == 0u);
 616              		.loc 1 577 0
 617 0030 FB68     		ldr	r3, [r7, #12]
 618 0032 002B     		cmp	r3, #0
 619 0034 EAD0     		beq	.L20
 620 0036 00E0     		b	.L19
 621              	.L22:
 573:Generated_Source\PSoC4/CapSense_CSD.c ****         }
 622              		.loc 1 573 0
 623 0038 C046     		nop
 624              	.L19:
 578:Generated_Source\PSoC4/CapSense_CSD.c **** 
 579:Generated_Source\PSoC4/CapSense_CSD.c ****     return ((uint8)snsIndex);
 625              		.loc 1 579 0
 626 003a FB1D     		adds	r3, r7, #7
 627 003c 1B78     		ldrb	r3, [r3]
 580:Generated_Source\PSoC4/CapSense_CSD.c **** }
 628              		.loc 1 580 0
 629 003e 1800     		movs	r0, r3
 630 0040 BD46     		mov	sp, r7
 631 0042 04B0     		add	sp, sp, #16
 632              		@ sp needed
 633 0044 80BD     		pop	{r7, pc}
 634              	.L24:
 635 0046 C046     		.align	2
 636              	.L23:
 637 0048 00000000 		.word	CapSense_CSD_sensorEnableMask
 638              		.cfi_endproc
 639              	.LFE37:
 640              		.size	CapSense_CSD_FindNextSensor, .-CapSense_CSD_FindNextSensor
 641              		.section	.text.CapSense_CSD_ScanSensor,"ax",%progbits
 642              		.align	2
 643              		.global	CapSense_CSD_ScanSensor
 644              		.code	16
 645              		.thumb_func
 646              		.type	CapSense_CSD_ScanSensor, %function
 647              	CapSense_CSD_ScanSensor:
 648              	.LFB38:
 581:Generated_Source\PSoC4/CapSense_CSD.c **** 
 582:Generated_Source\PSoC4/CapSense_CSD.c **** 
 583:Generated_Source\PSoC4/CapSense_CSD.c **** /*******************************************************************************
 584:Generated_Source\PSoC4/CapSense_CSD.c **** * Function Name: CapSense_CSD_ScanSensor
 585:Generated_Source\PSoC4/CapSense_CSD.c **** ********************************************************************************
 586:Generated_Source\PSoC4/CapSense_CSD.c **** *
 587:Generated_Source\PSoC4/CapSense_CSD.c **** * Summary:
 588:Generated_Source\PSoC4/CapSense_CSD.c **** *  Sets the scan settings and starts scanning a sensor. After scanning is complete,
 589:Generated_Source\PSoC4/CapSense_CSD.c **** *  the ISR copies the measured sensor raw data to the global raw sensor array.
 590:Generated_Source\PSoC4/CapSense_CSD.c **** *  Use of the ISR ensures this function is non-blocking.
 591:Generated_Source\PSoC4/CapSense_CSD.c **** *  Each sensor has a unique number within the sensor array.
 592:Generated_Source\PSoC4/CapSense_CSD.c **** *  This number is assigned by the CapSense customizer in sequence.
 593:Generated_Source\PSoC4/CapSense_CSD.c **** *
 594:Generated_Source\PSoC4/CapSense_CSD.c **** * Parameters:
 595:Generated_Source\PSoC4/CapSense_CSD.c **** *  sensor:  Sensor number.
 596:Generated_Source\PSoC4/CapSense_CSD.c **** *
 597:Generated_Source\PSoC4/CapSense_CSD.c **** * Return:
 598:Generated_Source\PSoC4/CapSense_CSD.c **** *  None
 599:Generated_Source\PSoC4/CapSense_CSD.c **** *
ARM GAS  C:\Users\SHOZO\AppData\Local\Temp\cc2WcnYb.s 			page 23


 600:Generated_Source\PSoC4/CapSense_CSD.c **** * Global Variables:
 601:Generated_Source\PSoC4/CapSense_CSD.c **** *  CapSense_CSD_csdStatusVar - used to provide the status and mode of the scanning process.
 602:Generated_Source\PSoC4/CapSense_CSD.c **** *  Sets the busy status(scan in progress) and mode of scan as single scan.
 603:Generated_Source\PSoC4/CapSense_CSD.c **** *  CapSense_CSD_sensorIndex - used to store a sensor scanning sensor number.
 604:Generated_Source\PSoC4/CapSense_CSD.c **** *  Sets to the provided sensor argument.
 605:Generated_Source\PSoC4/CapSense_CSD.c **** *
 606:Generated_Source\PSoC4/CapSense_CSD.c **** * Side Effects:
 607:Generated_Source\PSoC4/CapSense_CSD.c **** *  None
 608:Generated_Source\PSoC4/CapSense_CSD.c **** *
 609:Generated_Source\PSoC4/CapSense_CSD.c **** *******************************************************************************/
 610:Generated_Source\PSoC4/CapSense_CSD.c **** void CapSense_CSD_ScanSensor(uint32 sensor)
 611:Generated_Source\PSoC4/CapSense_CSD.c **** {
 649              		.loc 1 611 0
 650              		.cfi_startproc
 651              		@ args = 0, pretend = 0, frame = 8
 652              		@ frame_needed = 1, uses_anonymous_args = 0
 653 0000 80B5     		push	{r7, lr}
 654              		.cfi_def_cfa_offset 8
 655              		.cfi_offset 7, -8
 656              		.cfi_offset 14, -4
 657 0002 82B0     		sub	sp, sp, #8
 658              		.cfi_def_cfa_offset 16
 659 0004 00AF     		add	r7, sp, #0
 660              		.cfi_def_cfa_register 7
 661 0006 7860     		str	r0, [r7, #4]
 612:Generated_Source\PSoC4/CapSense_CSD.c ****     /* Clears status/control variable and set sensorIndex */
 613:Generated_Source\PSoC4/CapSense_CSD.c ****     CapSense_CSD_csdStatusVar = 0u;
 662              		.loc 1 613 0
 663 0008 084B     		ldr	r3, .L26
 664 000a 0022     		movs	r2, #0
 665 000c 1A70     		strb	r2, [r3]
 614:Generated_Source\PSoC4/CapSense_CSD.c ****     CapSense_CSD_sensorIndex = (uint8)sensor;
 666              		.loc 1 614 0
 667 000e 7B68     		ldr	r3, [r7, #4]
 668 0010 DAB2     		uxtb	r2, r3
 669 0012 074B     		ldr	r3, .L26+4
 670 0014 1A70     		strb	r2, [r3]
 615:Generated_Source\PSoC4/CapSense_CSD.c **** 
 616:Generated_Source\PSoC4/CapSense_CSD.c ****     /* Start of sensor scan */
 617:Generated_Source\PSoC4/CapSense_CSD.c ****     CapSense_CSD_csdStatusVar = (CapSense_CSD_SW_STS_BUSY | CapSense_CSD_SW_CTRL_SINGLE_SCAN);
 671              		.loc 1 617 0
 672 0016 054B     		ldr	r3, .L26
 673 0018 8122     		movs	r2, #129
 674 001a 1A70     		strb	r2, [r3]
 618:Generated_Source\PSoC4/CapSense_CSD.c ****     CapSense_CSD_PreScan(sensor);
 675              		.loc 1 618 0
 676 001c 7B68     		ldr	r3, [r7, #4]
 677 001e 1800     		movs	r0, r3
 678 0020 FFF7FEFF 		bl	CapSense_CSD_PreScan
 619:Generated_Source\PSoC4/CapSense_CSD.c **** }
 679              		.loc 1 619 0
 680 0024 C046     		nop
 681 0026 BD46     		mov	sp, r7
 682 0028 02B0     		add	sp, sp, #8
 683              		@ sp needed
 684 002a 80BD     		pop	{r7, pc}
 685              	.L27:
ARM GAS  C:\Users\SHOZO\AppData\Local\Temp\cc2WcnYb.s 			page 24


 686              		.align	2
 687              	.L26:
 688 002c 00000000 		.word	CapSense_CSD_csdStatusVar
 689 0030 00000000 		.word	CapSense_CSD_sensorIndex
 690              		.cfi_endproc
 691              	.LFE38:
 692              		.size	CapSense_CSD_ScanSensor, .-CapSense_CSD_ScanSensor
 693              		.section	.text.CapSense_CSD_ScanWidget,"ax",%progbits
 694              		.align	2
 695              		.global	CapSense_CSD_ScanWidget
 696              		.code	16
 697              		.thumb_func
 698              		.type	CapSense_CSD_ScanWidget, %function
 699              	CapSense_CSD_ScanWidget:
 700              	.LFB39:
 620:Generated_Source\PSoC4/CapSense_CSD.c **** 
 621:Generated_Source\PSoC4/CapSense_CSD.c **** 
 622:Generated_Source\PSoC4/CapSense_CSD.c **** #if(0u != CapSense_CSD_CSHL_API_GENERATE)
 623:Generated_Source\PSoC4/CapSense_CSD.c **** /*******************************************************************************
 624:Generated_Source\PSoC4/CapSense_CSD.c **** * Function Name: CapSense_CSD_ScanWidget
 625:Generated_Source\PSoC4/CapSense_CSD.c **** ********************************************************************************
 626:Generated_Source\PSoC4/CapSense_CSD.c **** *
 627:Generated_Source\PSoC4/CapSense_CSD.c **** * Summary:
 628:Generated_Source\PSoC4/CapSense_CSD.c **** *  Sets the scan settings and starts scanning a widget.
 629:Generated_Source\PSoC4/CapSense_CSD.c **** *
 630:Generated_Source\PSoC4/CapSense_CSD.c **** * Parameters:
 631:Generated_Source\PSoC4/CapSense_CSD.c **** *  uint32 widget: Widget number.
 632:Generated_Source\PSoC4/CapSense_CSD.c **** *
 633:Generated_Source\PSoC4/CapSense_CSD.c **** * Return:
 634:Generated_Source\PSoC4/CapSense_CSD.c **** *  None
 635:Generated_Source\PSoC4/CapSense_CSD.c **** *
 636:Generated_Source\PSoC4/CapSense_CSD.c **** * Global Variables:
 637:Generated_Source\PSoC4/CapSense_CSD.c **** *  CapSense_CSD_csdStatusVar - used to provide the status and mode of the scanning process.
 638:Generated_Source\PSoC4/CapSense_CSD.c **** *  Sets the busy status(scan in progress) and clears the single scan mode.
 639:Generated_Source\PSoC4/CapSense_CSD.c **** *  CapSense_CSD_sensorIndex - used to store a sensor scanning sensor number.
 640:Generated_Source\PSoC4/CapSense_CSD.c **** *  Sets to 0xFF and provided to function CapSense_CSD_FindNextSensor or
 641:Generated_Source\PSoC4/CapSense_CSD.c **** *  CapSense_CSD_sensorEnableMask[] - used to store bit masks of the enabled sensors.
 642:Generated_Source\PSoC4/CapSense_CSD.c **** *  CapSense_CSD_sensorEnableMaskBackup[] - used to backup bit masks of the enabled
 643:Generated_Source\PSoC4/CapSense_CSD.c **** *   sensors.
 644:Generated_Source\PSoC4/CapSense_CSD.c **** *
 645:Generated_Source\PSoC4/CapSense_CSD.c **** * Side Effects:
 646:Generated_Source\PSoC4/CapSense_CSD.c **** *  None
 647:Generated_Source\PSoC4/CapSense_CSD.c **** *
 648:Generated_Source\PSoC4/CapSense_CSD.c **** *******************************************************************************/
 649:Generated_Source\PSoC4/CapSense_CSD.c **** void CapSense_CSD_ScanWidget(uint32 widget)
 650:Generated_Source\PSoC4/CapSense_CSD.c **** {
 701              		.loc 1 650 0
 702              		.cfi_startproc
 703              		@ args = 0, pretend = 0, frame = 24
 704              		@ frame_needed = 1, uses_anonymous_args = 0
 705 0000 80B5     		push	{r7, lr}
 706              		.cfi_def_cfa_offset 8
 707              		.cfi_offset 7, -8
 708              		.cfi_offset 14, -4
 709 0002 86B0     		sub	sp, sp, #24
 710              		.cfi_def_cfa_offset 32
 711 0004 00AF     		add	r7, sp, #0
ARM GAS  C:\Users\SHOZO\AppData\Local\Temp\cc2WcnYb.s 			page 25


 712              		.cfi_def_cfa_register 7
 713 0006 7860     		str	r0, [r7, #4]
 651:Generated_Source\PSoC4/CapSense_CSD.c ****     uint32 sensorsPerWidget;
 652:Generated_Source\PSoC4/CapSense_CSD.c ****     uint32 lastSensor;
 653:Generated_Source\PSoC4/CapSense_CSD.c ****     uint32 snsIndex;
 654:Generated_Source\PSoC4/CapSense_CSD.c **** 
 655:Generated_Source\PSoC4/CapSense_CSD.c ****     /* Get first sensor in widget */
 656:Generated_Source\PSoC4/CapSense_CSD.c ****     CapSense_CSD_sensorIndex = CapSense_CSD_rawDataIndex[widget];
 714              		.loc 1 656 0
 715 0008 2E4A     		ldr	r2, .L38
 716 000a 7B68     		ldr	r3, [r7, #4]
 717 000c D318     		adds	r3, r2, r3
 718 000e 1A78     		ldrb	r2, [r3]
 719 0010 2D4B     		ldr	r3, .L38+4
 720 0012 1A70     		strb	r2, [r3]
 657:Generated_Source\PSoC4/CapSense_CSD.c **** 
 658:Generated_Source\PSoC4/CapSense_CSD.c ****     /* Get number of sensors in widget */
 659:Generated_Source\PSoC4/CapSense_CSD.c ****     sensorsPerWidget = CapSense_CSD_numberOfSensors[widget];
 721              		.loc 1 659 0
 722 0014 2D4A     		ldr	r2, .L38+8
 723 0016 7B68     		ldr	r3, [r7, #4]
 724 0018 D318     		adds	r3, r2, r3
 725 001a 1B78     		ldrb	r3, [r3]
 726 001c 7B61     		str	r3, [r7, #20]
 660:Generated_Source\PSoC4/CapSense_CSD.c **** 
 661:Generated_Source\PSoC4/CapSense_CSD.c ****     /* Check if generic Sensor */
 662:Generated_Source\PSoC4/CapSense_CSD.c ****     if(sensorsPerWidget == 0u)
 727              		.loc 1 662 0
 728 001e 7B69     		ldr	r3, [r7, #20]
 729 0020 002B     		cmp	r3, #0
 730 0022 01D1     		bne	.L29
 663:Generated_Source\PSoC4/CapSense_CSD.c ****     {
 664:Generated_Source\PSoC4/CapSense_CSD.c ****         sensorsPerWidget = 1u;
 731              		.loc 1 664 0
 732 0024 0123     		movs	r3, #1
 733 0026 7B61     		str	r3, [r7, #20]
 734              	.L29:
 665:Generated_Source\PSoC4/CapSense_CSD.c ****     }
 666:Generated_Source\PSoC4/CapSense_CSD.c **** 
 667:Generated_Source\PSoC4/CapSense_CSD.c ****     /* Get last sensor in widget */
 668:Generated_Source\PSoC4/CapSense_CSD.c ****     lastSensor = (CapSense_CSD_rawDataIndex[widget] + sensorsPerWidget) - 1u;
 735              		.loc 1 668 0
 736 0028 264A     		ldr	r2, .L38
 737 002a 7B68     		ldr	r3, [r7, #4]
 738 002c D318     		adds	r3, r2, r3
 739 002e 1B78     		ldrb	r3, [r3]
 740 0030 1A00     		movs	r2, r3
 741 0032 7B69     		ldr	r3, [r7, #20]
 742 0034 D318     		adds	r3, r2, r3
 743 0036 013B     		subs	r3, r3, #1
 744 0038 FB60     		str	r3, [r7, #12]
 669:Generated_Source\PSoC4/CapSense_CSD.c **** 
 670:Generated_Source\PSoC4/CapSense_CSD.c ****     /* Backup sensorEnableMask array */
 671:Generated_Source\PSoC4/CapSense_CSD.c ****     for(snsIndex = 0u; snsIndex < CapSense_CSD_TOTAL_SENSOR_MASK; snsIndex++)
 745              		.loc 1 671 0
 746 003a 0023     		movs	r3, #0
 747 003c 3B61     		str	r3, [r7, #16]
ARM GAS  C:\Users\SHOZO\AppData\Local\Temp\cc2WcnYb.s 			page 26


 748 003e 0BE0     		b	.L30
 749              	.L31:
 672:Generated_Source\PSoC4/CapSense_CSD.c ****     {
 673:Generated_Source\PSoC4/CapSense_CSD.c ****         /* Backup sensorEnableMask array */
 674:Generated_Source\PSoC4/CapSense_CSD.c ****         CapSense_CSD_sensorEnableMaskBackup[snsIndex] = CapSense_CSD_sensorEnableMask[snsIndex];
 750              		.loc 1 674 0 discriminator 3
 751 0040 234A     		ldr	r2, .L38+12
 752 0042 3B69     		ldr	r3, [r7, #16]
 753 0044 D318     		adds	r3, r2, r3
 754 0046 1978     		ldrb	r1, [r3]
 755 0048 224A     		ldr	r2, .L38+16
 756 004a 3B69     		ldr	r3, [r7, #16]
 757 004c D318     		adds	r3, r2, r3
 758 004e 0A1C     		adds	r2, r1, #0
 759 0050 1A70     		strb	r2, [r3]
 671:Generated_Source\PSoC4/CapSense_CSD.c ****     {
 760              		.loc 1 671 0 discriminator 3
 761 0052 3B69     		ldr	r3, [r7, #16]
 762 0054 0133     		adds	r3, r3, #1
 763 0056 3B61     		str	r3, [r7, #16]
 764              	.L30:
 671:Generated_Source\PSoC4/CapSense_CSD.c ****     {
 765              		.loc 1 671 0 is_stmt 0 discriminator 1
 766 0058 3B69     		ldr	r3, [r7, #16]
 767 005a 012B     		cmp	r3, #1
 768 005c F0D9     		bls	.L31
 675:Generated_Source\PSoC4/CapSense_CSD.c ****     }
 676:Generated_Source\PSoC4/CapSense_CSD.c **** 
 677:Generated_Source\PSoC4/CapSense_CSD.c ****     /* Update sensorEnableMask to scan the sensors that belong to widget */
 678:Generated_Source\PSoC4/CapSense_CSD.c ****     for(snsIndex = 0u; snsIndex < CapSense_CSD_TOTAL_SENSOR_COUNT; snsIndex++)
 769              		.loc 1 678 0 is_stmt 1
 770 005e 0023     		movs	r3, #0
 771 0060 3B61     		str	r3, [r7, #16]
 772 0062 1AE0     		b	.L32
 773              	.L35:
 679:Generated_Source\PSoC4/CapSense_CSD.c ****     {
 680:Generated_Source\PSoC4/CapSense_CSD.c ****         /* Update sensorEnableMask array bits to scan the widget only */
 681:Generated_Source\PSoC4/CapSense_CSD.c ****         if((snsIndex >= CapSense_CSD_sensorIndex) && (snsIndex <= lastSensor))
 774              		.loc 1 681 0
 775 0064 184B     		ldr	r3, .L38+4
 776 0066 1B78     		ldrb	r3, [r3]
 777 0068 DBB2     		uxtb	r3, r3
 778 006a 1A00     		movs	r2, r3
 779 006c 3B69     		ldr	r3, [r7, #16]
 780 006e 9A42     		cmp	r2, r3
 781 0070 0AD8     		bhi	.L33
 782              		.loc 1 681 0 is_stmt 0 discriminator 1
 783 0072 3A69     		ldr	r2, [r7, #16]
 784 0074 FB68     		ldr	r3, [r7, #12]
 785 0076 9A42     		cmp	r2, r3
 786 0078 06D8     		bhi	.L33
 682:Generated_Source\PSoC4/CapSense_CSD.c ****         {
 683:Generated_Source\PSoC4/CapSense_CSD.c ****             /* Set sensor bit to scan */
 684:Generated_Source\PSoC4/CapSense_CSD.c ****             CapSense_CSD_SetBitValue(CapSense_CSD_sensorEnableMask, snsIndex, 1u);
 787              		.loc 1 684 0 is_stmt 1
 788 007a 3969     		ldr	r1, [r7, #16]
 789 007c 144B     		ldr	r3, .L38+12
ARM GAS  C:\Users\SHOZO\AppData\Local\Temp\cc2WcnYb.s 			page 27


 790 007e 0122     		movs	r2, #1
 791 0080 1800     		movs	r0, r3
 792 0082 FFF7FEFF 		bl	CapSense_CSD_SetBitValue
 793 0086 05E0     		b	.L34
 794              	.L33:
 685:Generated_Source\PSoC4/CapSense_CSD.c ****         }
 686:Generated_Source\PSoC4/CapSense_CSD.c ****         else
 687:Generated_Source\PSoC4/CapSense_CSD.c ****         {
 688:Generated_Source\PSoC4/CapSense_CSD.c ****             /* Reset sensor bit to do not scan */
 689:Generated_Source\PSoC4/CapSense_CSD.c ****             CapSense_CSD_SetBitValue(CapSense_CSD_sensorEnableMask, snsIndex, 0u);
 795              		.loc 1 689 0
 796 0088 3969     		ldr	r1, [r7, #16]
 797 008a 114B     		ldr	r3, .L38+12
 798 008c 0022     		movs	r2, #0
 799 008e 1800     		movs	r0, r3
 800 0090 FFF7FEFF 		bl	CapSense_CSD_SetBitValue
 801              	.L34:
 678:Generated_Source\PSoC4/CapSense_CSD.c ****     {
 802              		.loc 1 678 0 discriminator 2
 803 0094 3B69     		ldr	r3, [r7, #16]
 804 0096 0133     		adds	r3, r3, #1
 805 0098 3B61     		str	r3, [r7, #16]
 806              	.L32:
 678:Generated_Source\PSoC4/CapSense_CSD.c ****     {
 807              		.loc 1 678 0 is_stmt 0 discriminator 1
 808 009a 3B69     		ldr	r3, [r7, #16]
 809 009c 0D2B     		cmp	r3, #13
 810 009e E1D9     		bls	.L35
 690:Generated_Source\PSoC4/CapSense_CSD.c ****         }
 691:Generated_Source\PSoC4/CapSense_CSD.c ****     }
 692:Generated_Source\PSoC4/CapSense_CSD.c **** 
 693:Generated_Source\PSoC4/CapSense_CSD.c ****     /* Check end of scan condition */
 694:Generated_Source\PSoC4/CapSense_CSD.c ****     if(CapSense_CSD_sensorIndex < CapSense_CSD_TOTAL_SENSOR_COUNT)
 811              		.loc 1 694 0 is_stmt 1
 812 00a0 094B     		ldr	r3, .L38+4
 813 00a2 1B78     		ldrb	r3, [r3]
 814 00a4 DBB2     		uxtb	r3, r3
 815 00a6 0D2B     		cmp	r3, #13
 816 00a8 08D8     		bhi	.L37
 695:Generated_Source\PSoC4/CapSense_CSD.c ****     {
 696:Generated_Source\PSoC4/CapSense_CSD.c ****         /* Set widget busy bit in status/control variable*/
 697:Generated_Source\PSoC4/CapSense_CSD.c ****         CapSense_CSD_csdStatusVar = (CapSense_CSD_SW_STS_BUSY | CapSense_CSD_SW_CTRL_WIDGET_SCAN);
 817              		.loc 1 697 0
 818 00aa 0B4B     		ldr	r3, .L38+20
 819 00ac 4122     		movs	r2, #65
 820 00ae 1A70     		strb	r2, [r3]
 698:Generated_Source\PSoC4/CapSense_CSD.c ****         /* Scan first sensor of widget*/
 699:Generated_Source\PSoC4/CapSense_CSD.c ****         CapSense_CSD_PreScan((uint32)CapSense_CSD_sensorIndex);
 821              		.loc 1 699 0
 822 00b0 054B     		ldr	r3, .L38+4
 823 00b2 1B78     		ldrb	r3, [r3]
 824 00b4 DBB2     		uxtb	r3, r3
 825 00b6 1800     		movs	r0, r3
 826 00b8 FFF7FEFF 		bl	CapSense_CSD_PreScan
 827              	.L37:
 700:Generated_Source\PSoC4/CapSense_CSD.c ****     }
 701:Generated_Source\PSoC4/CapSense_CSD.c **** }
ARM GAS  C:\Users\SHOZO\AppData\Local\Temp\cc2WcnYb.s 			page 28


 828              		.loc 1 701 0
 829 00bc C046     		nop
 830 00be BD46     		mov	sp, r7
 831 00c0 06B0     		add	sp, sp, #24
 832              		@ sp needed
 833 00c2 80BD     		pop	{r7, pc}
 834              	.L39:
 835              		.align	2
 836              	.L38:
 837 00c4 00000000 		.word	CapSense_CSD_rawDataIndex
 838 00c8 00000000 		.word	CapSense_CSD_sensorIndex
 839 00cc 00000000 		.word	CapSense_CSD_numberOfSensors
 840 00d0 00000000 		.word	CapSense_CSD_sensorEnableMask
 841 00d4 00000000 		.word	CapSense_CSD_sensorEnableMaskBackup
 842 00d8 00000000 		.word	CapSense_CSD_csdStatusVar
 843              		.cfi_endproc
 844              	.LFE39:
 845              		.size	CapSense_CSD_ScanWidget, .-CapSense_CSD_ScanWidget
 846              		.section	.text.CapSense_CSD_ScanEnabledWidgets,"ax",%progbits
 847              		.align	2
 848              		.global	CapSense_CSD_ScanEnabledWidgets
 849              		.code	16
 850              		.thumb_func
 851              		.type	CapSense_CSD_ScanEnabledWidgets, %function
 852              	CapSense_CSD_ScanEnabledWidgets:
 853              	.LFB40:
 702:Generated_Source\PSoC4/CapSense_CSD.c **** #endif /* (0u != CapSense_CSD_CSHL_API_GENERATE) */
 703:Generated_Source\PSoC4/CapSense_CSD.c **** 
 704:Generated_Source\PSoC4/CapSense_CSD.c **** 
 705:Generated_Source\PSoC4/CapSense_CSD.c **** /*******************************************************************************
 706:Generated_Source\PSoC4/CapSense_CSD.c **** * Function Name: CapSense_CSD_ScanEnableWidgets
 707:Generated_Source\PSoC4/CapSense_CSD.c **** ********************************************************************************
 708:Generated_Source\PSoC4/CapSense_CSD.c **** *
 709:Generated_Source\PSoC4/CapSense_CSD.c **** * Summary:
 710:Generated_Source\PSoC4/CapSense_CSD.c **** *  This is the preferred method to scan all of the enabled widgets.
 711:Generated_Source\PSoC4/CapSense_CSD.c **** *  The API starts scanning a sensor within the enabled widgets.
 712:Generated_Source\PSoC4/CapSense_CSD.c **** *  The ISR continues scanning the sensors until all the enabled widgets are scanned.
 713:Generated_Source\PSoC4/CapSense_CSD.c **** *  Use of the ISR ensures this function is non-blocking.
 714:Generated_Source\PSoC4/CapSense_CSD.c **** *  All the widgets are enabled by default except proximity widgets.
 715:Generated_Source\PSoC4/CapSense_CSD.c **** *  The proximity widgets must be manually enabled as their long scan time
 716:Generated_Source\PSoC4/CapSense_CSD.c **** *  is incompatible with a fast response required of other widget types.
 717:Generated_Source\PSoC4/CapSense_CSD.c **** *
 718:Generated_Source\PSoC4/CapSense_CSD.c **** * Parameters:
 719:Generated_Source\PSoC4/CapSense_CSD.c **** *  None
 720:Generated_Source\PSoC4/CapSense_CSD.c **** *
 721:Generated_Source\PSoC4/CapSense_CSD.c **** * Return:
 722:Generated_Source\PSoC4/CapSense_CSD.c **** *  None
 723:Generated_Source\PSoC4/CapSense_CSD.c **** *
 724:Generated_Source\PSoC4/CapSense_CSD.c **** * Global Variables:
 725:Generated_Source\PSoC4/CapSense_CSD.c **** *  CapSense_CSD_csdStatusVar - used to provide the status and mode of the scanning process.
 726:Generated_Source\PSoC4/CapSense_CSD.c **** *  Sets the busy status(scan in progress) and clears the single scan mode.
 727:Generated_Source\PSoC4/CapSense_CSD.c **** *  CapSense_CSD_sensorIndex - used to store a sensor scanning sensor number.
 728:Generated_Source\PSoC4/CapSense_CSD.c **** *  Sets to 0xFF and provided to function CapSense_CSD_FindNextSensor or
 729:Generated_Source\PSoC4/CapSense_CSD.c **** *
 730:Generated_Source\PSoC4/CapSense_CSD.c **** * Side Effects:
 731:Generated_Source\PSoC4/CapSense_CSD.c **** *  None
 732:Generated_Source\PSoC4/CapSense_CSD.c **** *
ARM GAS  C:\Users\SHOZO\AppData\Local\Temp\cc2WcnYb.s 			page 29


 733:Generated_Source\PSoC4/CapSense_CSD.c **** *******************************************************************************/
 734:Generated_Source\PSoC4/CapSense_CSD.c **** void CapSense_CSD_ScanEnabledWidgets(void)
 735:Generated_Source\PSoC4/CapSense_CSD.c **** {
 854              		.loc 1 735 0
 855              		.cfi_startproc
 856              		@ args = 0, pretend = 0, frame = 0
 857              		@ frame_needed = 1, uses_anonymous_args = 0
 858 0000 80B5     		push	{r7, lr}
 859              		.cfi_def_cfa_offset 8
 860              		.cfi_offset 7, -8
 861              		.cfi_offset 14, -4
 862 0002 00AF     		add	r7, sp, #0
 863              		.cfi_def_cfa_register 7
 736:Generated_Source\PSoC4/CapSense_CSD.c ****     /* Clears status/control variable and set sensorIndex */
 737:Generated_Source\PSoC4/CapSense_CSD.c ****     CapSense_CSD_csdStatusVar = 0u;
 864              		.loc 1 737 0
 865 0004 124B     		ldr	r3, .L43
 866 0006 0022     		movs	r2, #0
 867 0008 1A70     		strb	r2, [r3]
 738:Generated_Source\PSoC4/CapSense_CSD.c ****     CapSense_CSD_sensorIndex = 0xFFu;
 868              		.loc 1 738 0
 869 000a 124B     		ldr	r3, .L43+4
 870 000c FF22     		movs	r2, #255
 871 000e 1A70     		strb	r2, [r3]
 739:Generated_Source\PSoC4/CapSense_CSD.c **** 
 740:Generated_Source\PSoC4/CapSense_CSD.c ****     /* Find next sensor */
 741:Generated_Source\PSoC4/CapSense_CSD.c ****     CapSense_CSD_sensorIndex = (uint8)CapSense_CSD_FindNextSensor(CapSense_CSD_sensorIndex);
 872              		.loc 1 741 0
 873 0010 104B     		ldr	r3, .L43+4
 874 0012 1B78     		ldrb	r3, [r3]
 875 0014 DBB2     		uxtb	r3, r3
 876 0016 1800     		movs	r0, r3
 877 0018 FFF7FEFF 		bl	CapSense_CSD_FindNextSensor
 878 001c 0300     		movs	r3, r0
 879 001e 1A00     		movs	r2, r3
 880 0020 0C4B     		ldr	r3, .L43+4
 881 0022 1A70     		strb	r2, [r3]
 742:Generated_Source\PSoC4/CapSense_CSD.c **** 
 743:Generated_Source\PSoC4/CapSense_CSD.c ****     /* Check end of scan condition */
 744:Generated_Source\PSoC4/CapSense_CSD.c ****     if(CapSense_CSD_sensorIndex < CapSense_CSD_TOTAL_SENSOR_COUNT)
 882              		.loc 1 744 0
 883 0024 0B4B     		ldr	r3, .L43+4
 884 0026 1B78     		ldrb	r3, [r3]
 885 0028 DBB2     		uxtb	r3, r3
 886 002a 0D2B     		cmp	r3, #13
 887 002c 0DD8     		bhi	.L42
 745:Generated_Source\PSoC4/CapSense_CSD.c ****     {
 746:Generated_Source\PSoC4/CapSense_CSD.c ****         CapSense_CSD_csdStatusVar |= CapSense_CSD_SW_STS_BUSY;
 888              		.loc 1 746 0
 889 002e 084B     		ldr	r3, .L43
 890 0030 1B78     		ldrb	r3, [r3]
 891 0032 DBB2     		uxtb	r3, r3
 892 0034 0122     		movs	r2, #1
 893 0036 1343     		orrs	r3, r2
 894 0038 DAB2     		uxtb	r2, r3
 895 003a 054B     		ldr	r3, .L43
 896 003c 1A70     		strb	r2, [r3]
ARM GAS  C:\Users\SHOZO\AppData\Local\Temp\cc2WcnYb.s 			page 30


 747:Generated_Source\PSoC4/CapSense_CSD.c ****         CapSense_CSD_PreScan((uint32)CapSense_CSD_sensorIndex);
 897              		.loc 1 747 0
 898 003e 054B     		ldr	r3, .L43+4
 899 0040 1B78     		ldrb	r3, [r3]
 900 0042 DBB2     		uxtb	r3, r3
 901 0044 1800     		movs	r0, r3
 902 0046 FFF7FEFF 		bl	CapSense_CSD_PreScan
 903              	.L42:
 748:Generated_Source\PSoC4/CapSense_CSD.c ****     }
 749:Generated_Source\PSoC4/CapSense_CSD.c **** }
 904              		.loc 1 749 0
 905 004a C046     		nop
 906 004c BD46     		mov	sp, r7
 907              		@ sp needed
 908 004e 80BD     		pop	{r7, pc}
 909              	.L44:
 910              		.align	2
 911              	.L43:
 912 0050 00000000 		.word	CapSense_CSD_csdStatusVar
 913 0054 00000000 		.word	CapSense_CSD_sensorIndex
 914              		.cfi_endproc
 915              	.LFE40:
 916              		.size	CapSense_CSD_ScanEnabledWidgets, .-CapSense_CSD_ScanEnabledWidgets
 917              		.section	.text.CapSense_CSD_IsBusy,"ax",%progbits
 918              		.align	2
 919              		.global	CapSense_CSD_IsBusy
 920              		.code	16
 921              		.thumb_func
 922              		.type	CapSense_CSD_IsBusy, %function
 923              	CapSense_CSD_IsBusy:
 924              	.LFB41:
 750:Generated_Source\PSoC4/CapSense_CSD.c **** 
 751:Generated_Source\PSoC4/CapSense_CSD.c **** 
 752:Generated_Source\PSoC4/CapSense_CSD.c **** /*******************************************************************************
 753:Generated_Source\PSoC4/CapSense_CSD.c **** * Function Name: CapSense_CSD_IsBusy
 754:Generated_Source\PSoC4/CapSense_CSD.c **** ********************************************************************************
 755:Generated_Source\PSoC4/CapSense_CSD.c **** *
 756:Generated_Source\PSoC4/CapSense_CSD.c **** * Summary:
 757:Generated_Source\PSoC4/CapSense_CSD.c **** *  Returns the state of the CapSense component. 1 means that scanning in
 758:Generated_Source\PSoC4/CapSense_CSD.c **** *  progress and 0 means that scanning is complete.
 759:Generated_Source\PSoC4/CapSense_CSD.c **** *
 760:Generated_Source\PSoC4/CapSense_CSD.c **** * Parameters:
 761:Generated_Source\PSoC4/CapSense_CSD.c **** *  None
 762:Generated_Source\PSoC4/CapSense_CSD.c **** *
 763:Generated_Source\PSoC4/CapSense_CSD.c **** * Return:
 764:Generated_Source\PSoC4/CapSense_CSD.c **** *  Returns the state of scanning. 1 - scanning in progress, 0 - scanning
 765:Generated_Source\PSoC4/CapSense_CSD.c **** *  completed.
 766:Generated_Source\PSoC4/CapSense_CSD.c **** *
 767:Generated_Source\PSoC4/CapSense_CSD.c **** * Global Variables:
 768:Generated_Source\PSoC4/CapSense_CSD.c **** *  CapSense_CSD_csdStatusVar - used to provide the status and mode of the scanning process.
 769:Generated_Source\PSoC4/CapSense_CSD.c **** *  Checks the busy status.
 770:Generated_Source\PSoC4/CapSense_CSD.c **** *
 771:Generated_Source\PSoC4/CapSense_CSD.c **** * Side Effects:
 772:Generated_Source\PSoC4/CapSense_CSD.c **** *  None
 773:Generated_Source\PSoC4/CapSense_CSD.c **** *
 774:Generated_Source\PSoC4/CapSense_CSD.c **** *******************************************************************************/
 775:Generated_Source\PSoC4/CapSense_CSD.c **** uint32 CapSense_CSD_IsBusy(void)
ARM GAS  C:\Users\SHOZO\AppData\Local\Temp\cc2WcnYb.s 			page 31


 776:Generated_Source\PSoC4/CapSense_CSD.c **** {
 925              		.loc 1 776 0
 926              		.cfi_startproc
 927              		@ args = 0, pretend = 0, frame = 0
 928              		@ frame_needed = 1, uses_anonymous_args = 0
 929 0000 80B5     		push	{r7, lr}
 930              		.cfi_def_cfa_offset 8
 931              		.cfi_offset 7, -8
 932              		.cfi_offset 14, -4
 933 0002 00AF     		add	r7, sp, #0
 934              		.cfi_def_cfa_register 7
 777:Generated_Source\PSoC4/CapSense_CSD.c ****     return ((uint32)((0u != (CapSense_CSD_csdStatusVar & CapSense_CSD_SW_STS_BUSY)) ? 1u : 0u));
 935              		.loc 1 777 0
 936 0004 044B     		ldr	r3, .L47
 937 0006 1B78     		ldrb	r3, [r3]
 938 0008 DBB2     		uxtb	r3, r3
 939 000a 1A00     		movs	r2, r3
 940 000c 0123     		movs	r3, #1
 941 000e 1340     		ands	r3, r2
 778:Generated_Source\PSoC4/CapSense_CSD.c **** }
 942              		.loc 1 778 0
 943 0010 1800     		movs	r0, r3
 944 0012 BD46     		mov	sp, r7
 945              		@ sp needed
 946 0014 80BD     		pop	{r7, pc}
 947              	.L48:
 948 0016 C046     		.align	2
 949              	.L47:
 950 0018 00000000 		.word	CapSense_CSD_csdStatusVar
 951              		.cfi_endproc
 952              	.LFE41:
 953              		.size	CapSense_CSD_IsBusy, .-CapSense_CSD_IsBusy
 954              		.section	.text.CapSense_CSD_ReadSensorRaw,"ax",%progbits
 955              		.align	2
 956              		.global	CapSense_CSD_ReadSensorRaw
 957              		.code	16
 958              		.thumb_func
 959              		.type	CapSense_CSD_ReadSensorRaw, %function
 960              	CapSense_CSD_ReadSensorRaw:
 961              	.LFB42:
 779:Generated_Source\PSoC4/CapSense_CSD.c **** 
 780:Generated_Source\PSoC4/CapSense_CSD.c **** 
 781:Generated_Source\PSoC4/CapSense_CSD.c **** /*******************************************************************************
 782:Generated_Source\PSoC4/CapSense_CSD.c **** * Function Name: CapSense_CSD_ReadSensorRaw
 783:Generated_Source\PSoC4/CapSense_CSD.c **** ********************************************************************************
 784:Generated_Source\PSoC4/CapSense_CSD.c **** *
 785:Generated_Source\PSoC4/CapSense_CSD.c **** * Summary:
 786:Generated_Source\PSoC4/CapSense_CSD.c **** *  Returns sensor raw data from the global CapSense_sensorRaw[ ] array.
 787:Generated_Source\PSoC4/CapSense_CSD.c **** *  Each scan sensor has a unique number within the sensor array.
 788:Generated_Source\PSoC4/CapSense_CSD.c **** *  This number is assigned by the CapSense customizer in sequence.
 789:Generated_Source\PSoC4/CapSense_CSD.c **** *  Raw data can be used to perform calculations outside of the CapSense
 790:Generated_Source\PSoC4/CapSense_CSD.c **** *  provided framework.
 791:Generated_Source\PSoC4/CapSense_CSD.c **** *
 792:Generated_Source\PSoC4/CapSense_CSD.c **** * Parameters:
 793:Generated_Source\PSoC4/CapSense_CSD.c **** *  sensor:  Sensor number.
 794:Generated_Source\PSoC4/CapSense_CSD.c **** *
 795:Generated_Source\PSoC4/CapSense_CSD.c **** * Return:
ARM GAS  C:\Users\SHOZO\AppData\Local\Temp\cc2WcnYb.s 			page 32


 796:Generated_Source\PSoC4/CapSense_CSD.c **** *  Returns the current raw data value for a defined sensor number.
 797:Generated_Source\PSoC4/CapSense_CSD.c **** *
 798:Generated_Source\PSoC4/CapSense_CSD.c **** * Global Variables:
 799:Generated_Source\PSoC4/CapSense_CSD.c **** *  CapSense_CSD_sensorRaw[] - used to store sensors raw data.
 800:Generated_Source\PSoC4/CapSense_CSD.c **** *
 801:Generated_Source\PSoC4/CapSense_CSD.c **** * Side Effects:
 802:Generated_Source\PSoC4/CapSense_CSD.c **** *  None
 803:Generated_Source\PSoC4/CapSense_CSD.c **** *
 804:Generated_Source\PSoC4/CapSense_CSD.c **** *******************************************************************************/
 805:Generated_Source\PSoC4/CapSense_CSD.c **** uint16 CapSense_CSD_ReadSensorRaw(uint32 sensor)
 806:Generated_Source\PSoC4/CapSense_CSD.c **** {
 962              		.loc 1 806 0
 963              		.cfi_startproc
 964              		@ args = 0, pretend = 0, frame = 8
 965              		@ frame_needed = 1, uses_anonymous_args = 0
 966 0000 80B5     		push	{r7, lr}
 967              		.cfi_def_cfa_offset 8
 968              		.cfi_offset 7, -8
 969              		.cfi_offset 14, -4
 970 0002 82B0     		sub	sp, sp, #8
 971              		.cfi_def_cfa_offset 16
 972 0004 00AF     		add	r7, sp, #0
 973              		.cfi_def_cfa_register 7
 974 0006 7860     		str	r0, [r7, #4]
 807:Generated_Source\PSoC4/CapSense_CSD.c ****     return CapSense_CSD_sensorRaw[sensor];
 975              		.loc 1 807 0
 976 0008 034B     		ldr	r3, .L51
 977 000a 7A68     		ldr	r2, [r7, #4]
 978 000c 5200     		lsls	r2, r2, #1
 979 000e D35A     		ldrh	r3, [r2, r3]
 808:Generated_Source\PSoC4/CapSense_CSD.c **** }
 980              		.loc 1 808 0
 981 0010 1800     		movs	r0, r3
 982 0012 BD46     		mov	sp, r7
 983 0014 02B0     		add	sp, sp, #8
 984              		@ sp needed
 985 0016 80BD     		pop	{r7, pc}
 986              	.L52:
 987              		.align	2
 988              	.L51:
 989 0018 00000000 		.word	CapSense_CSD_sensorRaw
 990              		.cfi_endproc
 991              	.LFE42:
 992              		.size	CapSense_CSD_ReadSensorRaw, .-CapSense_CSD_ReadSensorRaw
 993              		.section	.text.CapSense_CSD_WriteSensorRaw,"ax",%progbits
 994              		.align	2
 995              		.global	CapSense_CSD_WriteSensorRaw
 996              		.code	16
 997              		.thumb_func
 998              		.type	CapSense_CSD_WriteSensorRaw, %function
 999              	CapSense_CSD_WriteSensorRaw:
 1000              	.LFB43:
 809:Generated_Source\PSoC4/CapSense_CSD.c **** 
 810:Generated_Source\PSoC4/CapSense_CSD.c **** 
 811:Generated_Source\PSoC4/CapSense_CSD.c **** /*******************************************************************************
 812:Generated_Source\PSoC4/CapSense_CSD.c **** * Function Name: CapSense_CSD_WriteSensorRaw
 813:Generated_Source\PSoC4/CapSense_CSD.c **** ********************************************************************************
ARM GAS  C:\Users\SHOZO\AppData\Local\Temp\cc2WcnYb.s 			page 33


 814:Generated_Source\PSoC4/CapSense_CSD.c **** *
 815:Generated_Source\PSoC4/CapSense_CSD.c **** * Summary:
 816:Generated_Source\PSoC4/CapSense_CSD.c **** *  This API writes the raw count value passed as an argument to the sensor Raw count array.
 817:Generated_Source\PSoC4/CapSense_CSD.c **** *
 818:Generated_Source\PSoC4/CapSense_CSD.c **** * Parameters:
 819:Generated_Source\PSoC4/CapSense_CSD.c **** *  sensor:  Sensor number.
 820:Generated_Source\PSoC4/CapSense_CSD.c **** *  value: Raw count value.
 821:Generated_Source\PSoC4/CapSense_CSD.c **** *
 822:Generated_Source\PSoC4/CapSense_CSD.c **** * Global Variables:
 823:Generated_Source\PSoC4/CapSense_CSD.c **** *  CapSense_CSD_sensorRaw[] - used to store sensors raw data.
 824:Generated_Source\PSoC4/CapSense_CSD.c **** *
 825:Generated_Source\PSoC4/CapSense_CSD.c **** * Return:
 826:Generated_Source\PSoC4/CapSense_CSD.c **** *  None
 827:Generated_Source\PSoC4/CapSense_CSD.c **** *
 828:Generated_Source\PSoC4/CapSense_CSD.c **** * Side Effects:
 829:Generated_Source\PSoC4/CapSense_CSD.c **** *  None
 830:Generated_Source\PSoC4/CapSense_CSD.c **** *
 831:Generated_Source\PSoC4/CapSense_CSD.c **** *******************************************************************************/
 832:Generated_Source\PSoC4/CapSense_CSD.c **** void CapSense_CSD_WriteSensorRaw(uint32 sensor, uint16 value)
 833:Generated_Source\PSoC4/CapSense_CSD.c **** {
 1001              		.loc 1 833 0
 1002              		.cfi_startproc
 1003              		@ args = 0, pretend = 0, frame = 8
 1004              		@ frame_needed = 1, uses_anonymous_args = 0
 1005 0000 80B5     		push	{r7, lr}
 1006              		.cfi_def_cfa_offset 8
 1007              		.cfi_offset 7, -8
 1008              		.cfi_offset 14, -4
 1009 0002 82B0     		sub	sp, sp, #8
 1010              		.cfi_def_cfa_offset 16
 1011 0004 00AF     		add	r7, sp, #0
 1012              		.cfi_def_cfa_register 7
 1013 0006 7860     		str	r0, [r7, #4]
 1014 0008 0A00     		movs	r2, r1
 1015 000a BB1C     		adds	r3, r7, #2
 1016 000c 1A80     		strh	r2, [r3]
 834:Generated_Source\PSoC4/CapSense_CSD.c ****     CapSense_CSD_sensorRaw[sensor] = value;
 1017              		.loc 1 834 0
 1018 000e 054B     		ldr	r3, .L54
 1019 0010 7A68     		ldr	r2, [r7, #4]
 1020 0012 5200     		lsls	r2, r2, #1
 1021 0014 B91C     		adds	r1, r7, #2
 1022 0016 0988     		ldrh	r1, [r1]
 1023 0018 D152     		strh	r1, [r2, r3]
 835:Generated_Source\PSoC4/CapSense_CSD.c **** }
 1024              		.loc 1 835 0
 1025 001a C046     		nop
 1026 001c BD46     		mov	sp, r7
 1027 001e 02B0     		add	sp, sp, #8
 1028              		@ sp needed
 1029 0020 80BD     		pop	{r7, pc}
 1030              	.L55:
 1031 0022 C046     		.align	2
 1032              	.L54:
 1033 0024 00000000 		.word	CapSense_CSD_sensorRaw
 1034              		.cfi_endproc
 1035              	.LFE43:
ARM GAS  C:\Users\SHOZO\AppData\Local\Temp\cc2WcnYb.s 			page 34


 1036              		.size	CapSense_CSD_WriteSensorRaw, .-CapSense_CSD_WriteSensorRaw
 1037              		.section	.text.CapSense_CSD_SetScanResolution,"ax",%progbits
 1038              		.align	2
 1039              		.global	CapSense_CSD_SetScanResolution
 1040              		.code	16
 1041              		.thumb_func
 1042              		.type	CapSense_CSD_SetScanResolution, %function
 1043              	CapSense_CSD_SetScanResolution:
 1044              	.LFB44:
 836:Generated_Source\PSoC4/CapSense_CSD.c **** 
 837:Generated_Source\PSoC4/CapSense_CSD.c **** 
 838:Generated_Source\PSoC4/CapSense_CSD.c **** #if (CapSense_CSD_TUNING_METHOD != CapSense_CSD__TUNING_NONE)
 839:Generated_Source\PSoC4/CapSense_CSD.c ****     /*******************************************************************************
 840:Generated_Source\PSoC4/CapSense_CSD.c ****     * Function Name: CapSense_CSD_SetScanResolution
 841:Generated_Source\PSoC4/CapSense_CSD.c ****     ********************************************************************************
 842:Generated_Source\PSoC4/CapSense_CSD.c ****     *
 843:Generated_Source\PSoC4/CapSense_CSD.c ****     * Summary:
 844:Generated_Source\PSoC4/CapSense_CSD.c ****     *  Sets a value of the sensor scan resolution for a widget.
 845:Generated_Source\PSoC4/CapSense_CSD.c ****     *  The MIN resolution can be set 8-bit. The MAX Resolution can be set 16 bit.
 846:Generated_Source\PSoC4/CapSense_CSD.c ****     *  This function is not available for the tuning mode "None".
 847:Generated_Source\PSoC4/CapSense_CSD.c ****     *
 848:Generated_Source\PSoC4/CapSense_CSD.c ****     * Parameters:
 849:Generated_Source\PSoC4/CapSense_CSD.c ****     *  widget:     Widget index.
 850:Generated_Source\PSoC4/CapSense_CSD.c ****     *  resolution: Represents the resolution value. The following defines which are available in th
 851:Generated_Source\PSoC4/CapSense_CSD.c ****     *              CapSense_CSD.h file should be used:
 852:Generated_Source\PSoC4/CapSense_CSD.c ****     *              CapSense_CSD_RESOLUTION_6_BITS
 853:Generated_Source\PSoC4/CapSense_CSD.c ****     *              CapSense_CSD_RESOLUTION_7_BITS
 854:Generated_Source\PSoC4/CapSense_CSD.c ****     *              CapSense_CSD_RESOLUTION_8_BITS
 855:Generated_Source\PSoC4/CapSense_CSD.c ****     *              CapSense_CSD_RESOLUTION_9_BITS
 856:Generated_Source\PSoC4/CapSense_CSD.c ****     *              CapSense_CSD_RESOLUTION_10_BITS
 857:Generated_Source\PSoC4/CapSense_CSD.c ****     *              CapSense_CSD_RESOLUTION_11_BITS
 858:Generated_Source\PSoC4/CapSense_CSD.c ****     *              CapSense_CSD_RESOLUTION_12_BITS
 859:Generated_Source\PSoC4/CapSense_CSD.c ****     *              CapSense_CSD_RESOLUTION_13_BITS
 860:Generated_Source\PSoC4/CapSense_CSD.c ****     *              CapSense_CSD_RESOLUTION_14_BITS
 861:Generated_Source\PSoC4/CapSense_CSD.c ****     *              CapSense_CSD_RESOLUTION_15_BITS
 862:Generated_Source\PSoC4/CapSense_CSD.c ****     *              CapSense_CSD_RESOLUTION_16_BITS
 863:Generated_Source\PSoC4/CapSense_CSD.c ****     *
 864:Generated_Source\PSoC4/CapSense_CSD.c ****     * Return:
 865:Generated_Source\PSoC4/CapSense_CSD.c ****     *  None
 866:Generated_Source\PSoC4/CapSense_CSD.c ****     *
 867:Generated_Source\PSoC4/CapSense_CSD.c ****     * Global Variables:
 868:Generated_Source\PSoC4/CapSense_CSD.c ****     *  CapSense_CSD_widgetResolution[] - used to store scan resolution of each widget.
 869:Generated_Source\PSoC4/CapSense_CSD.c ****     *
 870:Generated_Source\PSoC4/CapSense_CSD.c ****     * Side Effects:
 871:Generated_Source\PSoC4/CapSense_CSD.c ****     *  None
 872:Generated_Source\PSoC4/CapSense_CSD.c ****     *
 873:Generated_Source\PSoC4/CapSense_CSD.c ****     *******************************************************************************/
 874:Generated_Source\PSoC4/CapSense_CSD.c ****     void CapSense_CSD_SetScanResolution(uint32 widget, uint32 resolution)
 875:Generated_Source\PSoC4/CapSense_CSD.c ****     {
 1045              		.loc 1 875 0
 1046              		.cfi_startproc
 1047              		@ args = 0, pretend = 0, frame = 8
 1048              		@ frame_needed = 1, uses_anonymous_args = 0
 1049 0000 80B5     		push	{r7, lr}
 1050              		.cfi_def_cfa_offset 8
 1051              		.cfi_offset 7, -8
 1052              		.cfi_offset 14, -4
ARM GAS  C:\Users\SHOZO\AppData\Local\Temp\cc2WcnYb.s 			page 35


 1053 0002 82B0     		sub	sp, sp, #8
 1054              		.cfi_def_cfa_offset 16
 1055 0004 00AF     		add	r7, sp, #0
 1056              		.cfi_def_cfa_register 7
 1057 0006 7860     		str	r0, [r7, #4]
 1058 0008 3960     		str	r1, [r7]
 876:Generated_Source\PSoC4/CapSense_CSD.c ****         CapSense_CSD_widgetResolution[widget] = resolution;
 1059              		.loc 1 876 0
 1060 000a 044B     		ldr	r3, .L57
 1061 000c 7A68     		ldr	r2, [r7, #4]
 1062 000e 9200     		lsls	r2, r2, #2
 1063 0010 3968     		ldr	r1, [r7]
 1064 0012 D150     		str	r1, [r2, r3]
 877:Generated_Source\PSoC4/CapSense_CSD.c ****     }
 1065              		.loc 1 877 0
 1066 0014 C046     		nop
 1067 0016 BD46     		mov	sp, r7
 1068 0018 02B0     		add	sp, sp, #8
 1069              		@ sp needed
 1070 001a 80BD     		pop	{r7, pc}
 1071              	.L58:
 1072              		.align	2
 1073              	.L57:
 1074 001c 00000000 		.word	CapSense_CSD_widgetResolution
 1075              		.cfi_endproc
 1076              	.LFE44:
 1077              		.size	CapSense_CSD_SetScanResolution, .-CapSense_CSD_SetScanResolution
 1078              		.section	.text.CapSense_CSD_GetScanResolution,"ax",%progbits
 1079              		.align	2
 1080              		.global	CapSense_CSD_GetScanResolution
 1081              		.code	16
 1082              		.thumb_func
 1083              		.type	CapSense_CSD_GetScanResolution, %function
 1084              	CapSense_CSD_GetScanResolution:
 1085              	.LFB45:
 878:Generated_Source\PSoC4/CapSense_CSD.c **** #endif /* (CapSense_CSD_TUNING_METHOD != CapSense_CSD__TUNING_NONE) */
 879:Generated_Source\PSoC4/CapSense_CSD.c **** 
 880:Generated_Source\PSoC4/CapSense_CSD.c **** 
 881:Generated_Source\PSoC4/CapSense_CSD.c **** /*******************************************************************************
 882:Generated_Source\PSoC4/CapSense_CSD.c **** * Function Name: CapSense_CSD_GetScanResolution
 883:Generated_Source\PSoC4/CapSense_CSD.c **** ********************************************************************************
 884:Generated_Source\PSoC4/CapSense_CSD.c **** *
 885:Generated_Source\PSoC4/CapSense_CSD.c **** * Summary:
 886:Generated_Source\PSoC4/CapSense_CSD.c **** *  Returns the resolution value for the appropriate sensor.
 887:Generated_Source\PSoC4/CapSense_CSD.c **** *  This function is not available for tuning mode "None".
 888:Generated_Source\PSoC4/CapSense_CSD.c **** *
 889:Generated_Source\PSoC4/CapSense_CSD.c **** * Parameters:
 890:Generated_Source\PSoC4/CapSense_CSD.c **** *  widget:     Widget index.
 891:Generated_Source\PSoC4/CapSense_CSD.c **** *
 892:Generated_Source\PSoC4/CapSense_CSD.c **** * Return:
 893:Generated_Source\PSoC4/CapSense_CSD.c **** *  resolution: Returns the resolution value for the appropriate sensor.
 894:Generated_Source\PSoC4/CapSense_CSD.c **** *              The resolution values are defined in the CapSense_CSD.h file
 895:Generated_Source\PSoC4/CapSense_CSD.c **** *              The defines are encountered below:
 896:Generated_Source\PSoC4/CapSense_CSD.c **** *              CapSense_CSD_RESOLUTION_6_BITS
 897:Generated_Source\PSoC4/CapSense_CSD.c **** *              CapSense_CSD_RESOLUTION_7_BITS
 898:Generated_Source\PSoC4/CapSense_CSD.c **** *              CapSense_CSD_RESOLUTION_8_BITS
 899:Generated_Source\PSoC4/CapSense_CSD.c **** *              CapSense_CSD_RESOLUTION_9_BITS
ARM GAS  C:\Users\SHOZO\AppData\Local\Temp\cc2WcnYb.s 			page 36


 900:Generated_Source\PSoC4/CapSense_CSD.c **** *              CapSense_CSD_RESOLUTION_10_BITS
 901:Generated_Source\PSoC4/CapSense_CSD.c **** *              CapSense_CSD_RESOLUTION_11_BITS
 902:Generated_Source\PSoC4/CapSense_CSD.c **** *              CapSense_CSD_RESOLUTION_12_BITS
 903:Generated_Source\PSoC4/CapSense_CSD.c **** *              CapSense_CSD_RESOLUTION_13_BITS
 904:Generated_Source\PSoC4/CapSense_CSD.c **** *              CapSense_CSD_RESOLUTION_14_BITS
 905:Generated_Source\PSoC4/CapSense_CSD.c **** *              CapSense_CSD_RESOLUTION_15_BITS
 906:Generated_Source\PSoC4/CapSense_CSD.c **** *              CapSense_CSD_RESOLUTION_16_BITS
 907:Generated_Source\PSoC4/CapSense_CSD.c **** *
 908:Generated_Source\PSoC4/CapSense_CSD.c **** * Global Variables:
 909:Generated_Source\PSoC4/CapSense_CSD.c **** *  CapSense_CSD_widgetResolution[] - used to store scan resolution of every widget.
 910:Generated_Source\PSoC4/CapSense_CSD.c **** *
 911:Generated_Source\PSoC4/CapSense_CSD.c **** * Side Effects:
 912:Generated_Source\PSoC4/CapSense_CSD.c **** *  None
 913:Generated_Source\PSoC4/CapSense_CSD.c **** *
 914:Generated_Source\PSoC4/CapSense_CSD.c **** *******************************************************************************/
 915:Generated_Source\PSoC4/CapSense_CSD.c **** uint32 CapSense_CSD_GetScanResolution(uint32 widget)
 916:Generated_Source\PSoC4/CapSense_CSD.c **** {
 1086              		.loc 1 916 0
 1087              		.cfi_startproc
 1088              		@ args = 0, pretend = 0, frame = 8
 1089              		@ frame_needed = 1, uses_anonymous_args = 0
 1090 0000 80B5     		push	{r7, lr}
 1091              		.cfi_def_cfa_offset 8
 1092              		.cfi_offset 7, -8
 1093              		.cfi_offset 14, -4
 1094 0002 82B0     		sub	sp, sp, #8
 1095              		.cfi_def_cfa_offset 16
 1096 0004 00AF     		add	r7, sp, #0
 1097              		.cfi_def_cfa_register 7
 1098 0006 7860     		str	r0, [r7, #4]
 917:Generated_Source\PSoC4/CapSense_CSD.c ****     return(CapSense_CSD_widgetResolution[widget]);
 1099              		.loc 1 917 0
 1100 0008 034B     		ldr	r3, .L61
 1101 000a 7A68     		ldr	r2, [r7, #4]
 1102 000c 9200     		lsls	r2, r2, #2
 1103 000e D358     		ldr	r3, [r2, r3]
 918:Generated_Source\PSoC4/CapSense_CSD.c **** }
 1104              		.loc 1 918 0
 1105 0010 1800     		movs	r0, r3
 1106 0012 BD46     		mov	sp, r7
 1107 0014 02B0     		add	sp, sp, #8
 1108              		@ sp needed
 1109 0016 80BD     		pop	{r7, pc}
 1110              	.L62:
 1111              		.align	2
 1112              	.L61:
 1113 0018 00000000 		.word	CapSense_CSD_widgetResolution
 1114              		.cfi_endproc
 1115              	.LFE45:
 1116              		.size	CapSense_CSD_GetScanResolution, .-CapSense_CSD_GetScanResolution
 1117              		.section	.text.CapSense_CSD_ClearSensors,"ax",%progbits
 1118              		.align	2
 1119              		.global	CapSense_CSD_ClearSensors
 1120              		.code	16
 1121              		.thumb_func
 1122              		.type	CapSense_CSD_ClearSensors, %function
 1123              	CapSense_CSD_ClearSensors:
ARM GAS  C:\Users\SHOZO\AppData\Local\Temp\cc2WcnYb.s 			page 37


 1124              	.LFB46:
 919:Generated_Source\PSoC4/CapSense_CSD.c **** 
 920:Generated_Source\PSoC4/CapSense_CSD.c **** 
 921:Generated_Source\PSoC4/CapSense_CSD.c **** /*******************************************************************************
 922:Generated_Source\PSoC4/CapSense_CSD.c **** * Function Name: CapSense_CSD_ClearSensors
 923:Generated_Source\PSoC4/CapSense_CSD.c **** ********************************************************************************
 924:Generated_Source\PSoC4/CapSense_CSD.c **** *
 925:Generated_Source\PSoC4/CapSense_CSD.c **** * Summary:
 926:Generated_Source\PSoC4/CapSense_CSD.c **** *  Resets all the sensors to the non-sampling state by sequentially disconnecting
 927:Generated_Source\PSoC4/CapSense_CSD.c **** *  all the sensors from Analog MUX Bus and putting them to an inactive state.
 928:Generated_Source\PSoC4/CapSense_CSD.c **** *
 929:Generated_Source\PSoC4/CapSense_CSD.c **** * Parameters:
 930:Generated_Source\PSoC4/CapSense_CSD.c **** *  None
 931:Generated_Source\PSoC4/CapSense_CSD.c **** *
 932:Generated_Source\PSoC4/CapSense_CSD.c **** * Return:
 933:Generated_Source\PSoC4/CapSense_CSD.c **** *  None
 934:Generated_Source\PSoC4/CapSense_CSD.c **** *
 935:Generated_Source\PSoC4/CapSense_CSD.c **** * Global Variables:
 936:Generated_Source\PSoC4/CapSense_CSD.c **** *  None
 937:Generated_Source\PSoC4/CapSense_CSD.c **** *
 938:Generated_Source\PSoC4/CapSense_CSD.c **** * Side Effects:
 939:Generated_Source\PSoC4/CapSense_CSD.c **** *  None
 940:Generated_Source\PSoC4/CapSense_CSD.c **** *
 941:Generated_Source\PSoC4/CapSense_CSD.c **** *******************************************************************************/
 942:Generated_Source\PSoC4/CapSense_CSD.c **** void CapSense_CSD_ClearSensors(void)
 943:Generated_Source\PSoC4/CapSense_CSD.c **** {
 1125              		.loc 1 943 0
 1126              		.cfi_startproc
 1127              		@ args = 0, pretend = 0, frame = 8
 1128              		@ frame_needed = 1, uses_anonymous_args = 0
 1129 0000 80B5     		push	{r7, lr}
 1130              		.cfi_def_cfa_offset 8
 1131              		.cfi_offset 7, -8
 1132              		.cfi_offset 14, -4
 1133 0002 82B0     		sub	sp, sp, #8
 1134              		.cfi_def_cfa_offset 16
 1135 0004 00AF     		add	r7, sp, #0
 1136              		.cfi_def_cfa_register 7
 944:Generated_Source\PSoC4/CapSense_CSD.c ****     uint32 snsIndex;
 945:Generated_Source\PSoC4/CapSense_CSD.c **** 
 946:Generated_Source\PSoC4/CapSense_CSD.c ****     for (snsIndex = 0u; snsIndex < CapSense_CSD_TOTAL_SENSOR_COUNT; snsIndex++)
 1137              		.loc 1 946 0
 1138 0006 0023     		movs	r3, #0
 1139 0008 7B60     		str	r3, [r7, #4]
 1140 000a 06E0     		b	.L64
 1141              	.L65:
 947:Generated_Source\PSoC4/CapSense_CSD.c ****     {
 948:Generated_Source\PSoC4/CapSense_CSD.c ****         CapSense_CSD_DisableScanSlot(snsIndex);
 1142              		.loc 1 948 0 discriminator 3
 1143 000c 7B68     		ldr	r3, [r7, #4]
 1144 000e 1800     		movs	r0, r3
 1145 0010 FFF7FEFF 		bl	CapSense_CSD_DisableSensor
 946:Generated_Source\PSoC4/CapSense_CSD.c ****     {
 1146              		.loc 1 946 0 discriminator 3
 1147 0014 7B68     		ldr	r3, [r7, #4]
 1148 0016 0133     		adds	r3, r3, #1
 1149 0018 7B60     		str	r3, [r7, #4]
ARM GAS  C:\Users\SHOZO\AppData\Local\Temp\cc2WcnYb.s 			page 38


 1150              	.L64:
 946:Generated_Source\PSoC4/CapSense_CSD.c ****     {
 1151              		.loc 1 946 0 is_stmt 0 discriminator 1
 1152 001a 7B68     		ldr	r3, [r7, #4]
 1153 001c 0D2B     		cmp	r3, #13
 1154 001e F5D9     		bls	.L65
 949:Generated_Source\PSoC4/CapSense_CSD.c ****     }
 950:Generated_Source\PSoC4/CapSense_CSD.c **** }
 1155              		.loc 1 950 0 is_stmt 1
 1156 0020 C046     		nop
 1157 0022 BD46     		mov	sp, r7
 1158 0024 02B0     		add	sp, sp, #8
 1159              		@ sp needed
 1160 0026 80BD     		pop	{r7, pc}
 1161              		.cfi_endproc
 1162              	.LFE46:
 1163              		.size	CapSense_CSD_ClearSensors, .-CapSense_CSD_ClearSensors
 1164              		.section	.text.CapSense_CSD_EnableSensor,"ax",%progbits
 1165              		.align	2
 1166              		.global	CapSense_CSD_EnableSensor
 1167              		.code	16
 1168              		.thumb_func
 1169              		.type	CapSense_CSD_EnableSensor, %function
 1170              	CapSense_CSD_EnableSensor:
 1171              	.LFB47:
 951:Generated_Source\PSoC4/CapSense_CSD.c **** 
 952:Generated_Source\PSoC4/CapSense_CSD.c **** 
 953:Generated_Source\PSoC4/CapSense_CSD.c **** #if (CapSense_CSD_IS_COMPLEX_SCANSLOTS)
 954:Generated_Source\PSoC4/CapSense_CSD.c ****     /*******************************************************************************
 955:Generated_Source\PSoC4/CapSense_CSD.c ****     * Function Name: CapSense_CSD_EnableScanSlot
 956:Generated_Source\PSoC4/CapSense_CSD.c ****     ********************************************************************************
 957:Generated_Source\PSoC4/CapSense_CSD.c ****     *
 958:Generated_Source\PSoC4/CapSense_CSD.c ****     * Summary:
 959:Generated_Source\PSoC4/CapSense_CSD.c ****     *  Configures the selected slot to measure during the next measurement
 960:Generated_Source\PSoC4/CapSense_CSD.c ****     *  cycle. The corresponding pin/pins are set to Analog High-Z mode and
 961:Generated_Source\PSoC4/CapSense_CSD.c ****     *  connected to the Analog Mux Bus. This also enables the comparator function.
 962:Generated_Source\PSoC4/CapSense_CSD.c ****     *
 963:Generated_Source\PSoC4/CapSense_CSD.c ****     * Parameters:
 964:Generated_Source\PSoC4/CapSense_CSD.c ****     *  slot:  Slot number.
 965:Generated_Source\PSoC4/CapSense_CSD.c ****     *
 966:Generated_Source\PSoC4/CapSense_CSD.c ****     * Return:
 967:Generated_Source\PSoC4/CapSense_CSD.c ****     *  None
 968:Generated_Source\PSoC4/CapSense_CSD.c ****     *
 969:Generated_Source\PSoC4/CapSense_CSD.c ****     * Global Constants:
 970:Generated_Source\PSoC4/CapSense_CSD.c ****     *  CapSense_CSD_portTable[]  - used to store the port number that pin
 971:Generated_Source\PSoC4/CapSense_CSD.c ****     *  belongs to for each sensor.
 972:Generated_Source\PSoC4/CapSense_CSD.c ****     *  CapSense_CSD_maskTable[]  - used to store the pin within the port for
 973:Generated_Source\PSoC4/CapSense_CSD.c ****     *  each sensor.
 974:Generated_Source\PSoC4/CapSense_CSD.c ****     *  CapSense_CSD_indexTable[] - used to store indexes of complex sensors.
 975:Generated_Source\PSoC4/CapSense_CSD.c ****     *  The offset and position in this array are stored in a port and mask table for
 976:Generated_Source\PSoC4/CapSense_CSD.c ****     *  complex sensors.
 977:Generated_Source\PSoC4/CapSense_CSD.c ****     *  Bit 7 (msb) is used to define the sensor type: single or complex.
 978:Generated_Source\PSoC4/CapSense_CSD.c ****     *
 979:Generated_Source\PSoC4/CapSense_CSD.c ****     * Side Effects:
 980:Generated_Source\PSoC4/CapSense_CSD.c ****     *  None
 981:Generated_Source\PSoC4/CapSense_CSD.c ****     *
 982:Generated_Source\PSoC4/CapSense_CSD.c ****     *******************************************************************************/
ARM GAS  C:\Users\SHOZO\AppData\Local\Temp\cc2WcnYb.s 			page 39


 983:Generated_Source\PSoC4/CapSense_CSD.c ****     void CapSense_CSD_EnableScanSlot(uint32 slot)
 984:Generated_Source\PSoC4/CapSense_CSD.c ****     {
 985:Generated_Source\PSoC4/CapSense_CSD.c ****         uint8 j;
 986:Generated_Source\PSoC4/CapSense_CSD.c ****         uint8 snsNumber;
 987:Generated_Source\PSoC4/CapSense_CSD.c ****         const uint8 *index;
 988:Generated_Source\PSoC4/CapSense_CSD.c ****         /* Read sensor type: single or complex */
 989:Generated_Source\PSoC4/CapSense_CSD.c ****         uint8 snsType = CapSense_CSD_portTable[slot];
 990:Generated_Source\PSoC4/CapSense_CSD.c **** 
 991:Generated_Source\PSoC4/CapSense_CSD.c ****         /* Check if sensor is complex */
 992:Generated_Source\PSoC4/CapSense_CSD.c ****         if ((snsType & CapSense_CSD_COMPLEX_SS_FLAG) == 0u)
 993:Generated_Source\PSoC4/CapSense_CSD.c ****         {
 994:Generated_Source\PSoC4/CapSense_CSD.c ****             /* Enable sensor (single) */
 995:Generated_Source\PSoC4/CapSense_CSD.c ****             CapSense_CSD_EnableSensor(slot);
 996:Generated_Source\PSoC4/CapSense_CSD.c ****         }
 997:Generated_Source\PSoC4/CapSense_CSD.c ****         else
 998:Generated_Source\PSoC4/CapSense_CSD.c ****         {
 999:Generated_Source\PSoC4/CapSense_CSD.c ****             /* Enable complex sensor */
1000:Generated_Source\PSoC4/CapSense_CSD.c ****             snsType &= ~CapSense_CSD_COMPLEX_SS_FLAG;
1001:Generated_Source\PSoC4/CapSense_CSD.c ****             index = &CapSense_CSD_indexTable[snsType];
1002:Generated_Source\PSoC4/CapSense_CSD.c ****             snsNumber = CapSense_CSD_maskTable[slot];
1003:Generated_Source\PSoC4/CapSense_CSD.c **** 
1004:Generated_Source\PSoC4/CapSense_CSD.c ****             for (j = 0u; j < snsNumber; j++)
1005:Generated_Source\PSoC4/CapSense_CSD.c ****             {
1006:Generated_Source\PSoC4/CapSense_CSD.c ****                 CapSense_CSD_EnableSensor(index[j]);
1007:Generated_Source\PSoC4/CapSense_CSD.c ****             }
1008:Generated_Source\PSoC4/CapSense_CSD.c ****         }
1009:Generated_Source\PSoC4/CapSense_CSD.c ****     }
1010:Generated_Source\PSoC4/CapSense_CSD.c **** 
1011:Generated_Source\PSoC4/CapSense_CSD.c **** 
1012:Generated_Source\PSoC4/CapSense_CSD.c ****     /*******************************************************************************
1013:Generated_Source\PSoC4/CapSense_CSD.c ****     * Function Name: CapSense_CSD_DisableScanSlot
1014:Generated_Source\PSoC4/CapSense_CSD.c ****     ********************************************************************************
1015:Generated_Source\PSoC4/CapSense_CSD.c ****     *
1016:Generated_Source\PSoC4/CapSense_CSD.c ****     * Summary:
1017:Generated_Source\PSoC4/CapSense_CSD.c ****     *  Disables the selected slot. The corresponding pin/pins is/are disconnected
1018:Generated_Source\PSoC4/CapSense_CSD.c ****     *  from the Analog Mux Bus and connected to GND, High_Z or Shield electrode.
1019:Generated_Source\PSoC4/CapSense_CSD.c ****     *
1020:Generated_Source\PSoC4/CapSense_CSD.c ****     * Parameters:
1021:Generated_Source\PSoC4/CapSense_CSD.c ****     *  slot:  Slot number.
1022:Generated_Source\PSoC4/CapSense_CSD.c ****     *
1023:Generated_Source\PSoC4/CapSense_CSD.c ****     * Return:
1024:Generated_Source\PSoC4/CapSense_CSD.c ****     *  None
1025:Generated_Source\PSoC4/CapSense_CSD.c ****     *
1026:Generated_Source\PSoC4/CapSense_CSD.c ****     * Global Variables:
1027:Generated_Source\PSoC4/CapSense_CSD.c ****     *  CapSense_CSD_portTable[]  - used to store the port number that pin
1028:Generated_Source\PSoC4/CapSense_CSD.c ****     *  belongs to for each sensor.
1029:Generated_Source\PSoC4/CapSense_CSD.c ****     *  CapSense_CSD_maskTable[]  - used to store the pin within the port for
1030:Generated_Source\PSoC4/CapSense_CSD.c ****     *  each sensor.
1031:Generated_Source\PSoC4/CapSense_CSD.c ****     *  CapSense_CSD_indexTable[] - used to store indexes of complex sensors.
1032:Generated_Source\PSoC4/CapSense_CSD.c ****     *  The offset and position in this array are stored in a port and mask table for
1033:Generated_Source\PSoC4/CapSense_CSD.c ****     *  complex sensors.
1034:Generated_Source\PSoC4/CapSense_CSD.c ****     *  7bit(msb) is used to define the sensor type: single or complex.
1035:Generated_Source\PSoC4/CapSense_CSD.c ****     *
1036:Generated_Source\PSoC4/CapSense_CSD.c ****     * Side Effects:
1037:Generated_Source\PSoC4/CapSense_CSD.c ****     *  None
1038:Generated_Source\PSoC4/CapSense_CSD.c ****     *
1039:Generated_Source\PSoC4/CapSense_CSD.c ****     *******************************************************************************/
ARM GAS  C:\Users\SHOZO\AppData\Local\Temp\cc2WcnYb.s 			page 40


1040:Generated_Source\PSoC4/CapSense_CSD.c ****     void CapSense_CSD_DisableScanSlot(uint32 slot)
1041:Generated_Source\PSoC4/CapSense_CSD.c ****     {
1042:Generated_Source\PSoC4/CapSense_CSD.c ****         uint8 j;
1043:Generated_Source\PSoC4/CapSense_CSD.c ****         uint8 snsNumber;
1044:Generated_Source\PSoC4/CapSense_CSD.c ****         const uint8 *index;
1045:Generated_Source\PSoC4/CapSense_CSD.c **** 
1046:Generated_Source\PSoC4/CapSense_CSD.c ****         /* Read sensor type: single or complex */
1047:Generated_Source\PSoC4/CapSense_CSD.c ****         uint8 snsType = CapSense_CSD_portTable[slot];
1048:Generated_Source\PSoC4/CapSense_CSD.c **** 
1049:Generated_Source\PSoC4/CapSense_CSD.c ****         /* Check if sensor is complex */
1050:Generated_Source\PSoC4/CapSense_CSD.c ****         if ((snsType & CapSense_CSD_COMPLEX_SS_FLAG) == 0u)
1051:Generated_Source\PSoC4/CapSense_CSD.c ****         {
1052:Generated_Source\PSoC4/CapSense_CSD.c ****             /* Disable sensor (single) */
1053:Generated_Source\PSoC4/CapSense_CSD.c ****             CapSense_CSD_DisableSensor(slot);
1054:Generated_Source\PSoC4/CapSense_CSD.c ****         }
1055:Generated_Source\PSoC4/CapSense_CSD.c ****         else
1056:Generated_Source\PSoC4/CapSense_CSD.c ****         {
1057:Generated_Source\PSoC4/CapSense_CSD.c ****             /* Disable complex sensor */
1058:Generated_Source\PSoC4/CapSense_CSD.c ****             snsType &= ~CapSense_CSD_COMPLEX_SS_FLAG;
1059:Generated_Source\PSoC4/CapSense_CSD.c ****             index = &CapSense_CSD_indexTable[snsType];
1060:Generated_Source\PSoC4/CapSense_CSD.c ****             snsNumber = CapSense_CSD_maskTable[slot];
1061:Generated_Source\PSoC4/CapSense_CSD.c **** 
1062:Generated_Source\PSoC4/CapSense_CSD.c ****             for (j=0; j < snsNumber; j++)
1063:Generated_Source\PSoC4/CapSense_CSD.c ****             {
1064:Generated_Source\PSoC4/CapSense_CSD.c ****                 CapSense_CSD_DisableSensor(index[j]);
1065:Generated_Source\PSoC4/CapSense_CSD.c ****             }
1066:Generated_Source\PSoC4/CapSense_CSD.c ****         }
1067:Generated_Source\PSoC4/CapSense_CSD.c ****     }
1068:Generated_Source\PSoC4/CapSense_CSD.c **** #endif  /* CapSense_CSD_IS_COMPLEX_SCANSLOTS */
1069:Generated_Source\PSoC4/CapSense_CSD.c **** 
1070:Generated_Source\PSoC4/CapSense_CSD.c **** 
1071:Generated_Source\PSoC4/CapSense_CSD.c **** /*******************************************************************************
1072:Generated_Source\PSoC4/CapSense_CSD.c **** * Function Name: CapSense_CSD_EnableSensor
1073:Generated_Source\PSoC4/CapSense_CSD.c **** ********************************************************************************
1074:Generated_Source\PSoC4/CapSense_CSD.c **** *
1075:Generated_Source\PSoC4/CapSense_CSD.c **** * Summary:
1076:Generated_Source\PSoC4/CapSense_CSD.c **** *  Configures the selected sensor to measure during the next measurement cycle.
1077:Generated_Source\PSoC4/CapSense_CSD.c **** *  The corresponding pins are set to Analog High-Z mode and connected to the
1078:Generated_Source\PSoC4/CapSense_CSD.c **** *  Analog Mux Bus. This also enables the comparator function.
1079:Generated_Source\PSoC4/CapSense_CSD.c **** *
1080:Generated_Source\PSoC4/CapSense_CSD.c **** * Parameters:
1081:Generated_Source\PSoC4/CapSense_CSD.c **** *  sensor:  Sensor number.
1082:Generated_Source\PSoC4/CapSense_CSD.c **** *
1083:Generated_Source\PSoC4/CapSense_CSD.c **** * Return:
1084:Generated_Source\PSoC4/CapSense_CSD.c **** *  None
1085:Generated_Source\PSoC4/CapSense_CSD.c **** *
1086:Generated_Source\PSoC4/CapSense_CSD.c **** * Global Variables:
1087:Generated_Source\PSoC4/CapSense_CSD.c **** *  CapSense_CSD_portTable[] - used to store the port number that pin
1088:Generated_Source\PSoC4/CapSense_CSD.c **** *  belongs to for each sensor.
1089:Generated_Source\PSoC4/CapSense_CSD.c **** *  CapSense_CSD_pinShiftTbl[] - used to store position of pin that
1090:Generated_Source\PSoC4/CapSense_CSD.c **** *  configured as sensor in port.
1091:Generated_Source\PSoC4/CapSense_CSD.c **** *  CapSense_CSD_prtSelTbl[] - Contains pointers to the HSIOM
1092:Generated_Source\PSoC4/CapSense_CSD.c **** *  registers for each port.
1093:Generated_Source\PSoC4/CapSense_CSD.c **** *  CapSense_CSD_PrtCfgTb[] - Contains pointers to the port config
1094:Generated_Source\PSoC4/CapSense_CSD.c **** *  registers for each port.
1095:Generated_Source\PSoC4/CapSense_CSD.c **** *
1096:Generated_Source\PSoC4/CapSense_CSD.c **** * Side Effects:
ARM GAS  C:\Users\SHOZO\AppData\Local\Temp\cc2WcnYb.s 			page 41


1097:Generated_Source\PSoC4/CapSense_CSD.c **** *  None
1098:Generated_Source\PSoC4/CapSense_CSD.c **** *
1099:Generated_Source\PSoC4/CapSense_CSD.c **** *******************************************************************************/
1100:Generated_Source\PSoC4/CapSense_CSD.c **** void CapSense_CSD_EnableSensor(uint32 sensor)
1101:Generated_Source\PSoC4/CapSense_CSD.c **** {
 1172              		.loc 1 1101 0
 1173              		.cfi_startproc
 1174              		@ args = 0, pretend = 0, frame = 24
 1175              		@ frame_needed = 1, uses_anonymous_args = 0
 1176 0000 90B5     		push	{r4, r7, lr}
 1177              		.cfi_def_cfa_offset 12
 1178              		.cfi_offset 4, -12
 1179              		.cfi_offset 7, -8
 1180              		.cfi_offset 14, -4
 1181 0002 87B0     		sub	sp, sp, #28
 1182              		.cfi_def_cfa_offset 40
 1183 0004 00AF     		add	r7, sp, #0
 1184              		.cfi_def_cfa_register 7
 1185 0006 7860     		str	r0, [r7, #4]
1102:Generated_Source\PSoC4/CapSense_CSD.c ****     uint8  pinModeShift;
1103:Generated_Source\PSoC4/CapSense_CSD.c ****     uint8  pinHSIOMShift;
1104:Generated_Source\PSoC4/CapSense_CSD.c ****     uint8 interruptState;
1105:Generated_Source\PSoC4/CapSense_CSD.c ****     uint32 newRegisterValue;
1106:Generated_Source\PSoC4/CapSense_CSD.c ****     uint32 port;
1107:Generated_Source\PSoC4/CapSense_CSD.c **** 
1108:Generated_Source\PSoC4/CapSense_CSD.c ****     port = (uint32) CapSense_CSD_portTable[sensor];
 1186              		.loc 1 1108 0
 1187 0008 2C4A     		ldr	r2, .L67
 1188 000a 7B68     		ldr	r3, [r7, #4]
 1189 000c D318     		adds	r3, r2, r3
 1190 000e 1B78     		ldrb	r3, [r3]
 1191 0010 7B61     		str	r3, [r7, #20]
1109:Generated_Source\PSoC4/CapSense_CSD.c ****     pinModeShift = CapSense_CSD_pinShiftTbl[sensor]  * CapSense_CSD_PC_PIN_CFG_SIZE;
 1192              		.loc 1 1109 0
 1193 0012 2B4A     		ldr	r2, .L67+4
 1194 0014 7B68     		ldr	r3, [r7, #4]
 1195 0016 D318     		adds	r3, r2, r3
 1196 0018 1B78     		ldrb	r3, [r3]
 1197 001a 1322     		movs	r2, #19
 1198 001c BA18     		adds	r2, r7, r2
 1199 001e 191C     		adds	r1, r3, #0
 1200 0020 0B1C     		adds	r3, r1, #0
 1201 0022 DB18     		adds	r3, r3, r3
 1202 0024 5B18     		adds	r3, r3, r1
 1203 0026 1370     		strb	r3, [r2]
1110:Generated_Source\PSoC4/CapSense_CSD.c ****     pinHSIOMShift = CapSense_CSD_pinShiftTbl[sensor] * CapSense_CSD_HSIOM_PIN_CFG_SIZE;
 1204              		.loc 1 1110 0
 1205 0028 254A     		ldr	r2, .L67+4
 1206 002a 7B68     		ldr	r3, [r7, #4]
 1207 002c D318     		adds	r3, r2, r3
 1208 002e 1A78     		ldrb	r2, [r3]
 1209 0030 1223     		movs	r3, #18
 1210 0032 FB18     		adds	r3, r7, r3
 1211 0034 9200     		lsls	r2, r2, #2
 1212 0036 1A70     		strb	r2, [r3]
1111:Generated_Source\PSoC4/CapSense_CSD.c **** 
1112:Generated_Source\PSoC4/CapSense_CSD.c ****     interruptState = CyEnterCriticalSection();
ARM GAS  C:\Users\SHOZO\AppData\Local\Temp\cc2WcnYb.s 			page 42


 1213              		.loc 1 1112 0
 1214 0038 1123     		movs	r3, #17
 1215 003a FC18     		adds	r4, r7, r3
 1216 003c FFF7FEFF 		bl	CyEnterCriticalSection
 1217 0040 0300     		movs	r3, r0
 1218 0042 2370     		strb	r3, [r4]
1113:Generated_Source\PSoC4/CapSense_CSD.c **** 
1114:Generated_Source\PSoC4/CapSense_CSD.c ****     newRegisterValue = *CapSense_CSD_prtSelTbl[port];
 1219              		.loc 1 1114 0
 1220 0044 1F4B     		ldr	r3, .L67+8
 1221 0046 7A69     		ldr	r2, [r7, #20]
 1222 0048 9200     		lsls	r2, r2, #2
 1223 004a D358     		ldr	r3, [r2, r3]
 1224 004c 1B68     		ldr	r3, [r3]
 1225 004e FB60     		str	r3, [r7, #12]
1115:Generated_Source\PSoC4/CapSense_CSD.c ****     newRegisterValue &= ~(CapSense_CSD_CSD_HSIOM_MASK << pinHSIOMShift);
 1226              		.loc 1 1115 0
 1227 0050 1223     		movs	r3, #18
 1228 0052 FB18     		adds	r3, r7, r3
 1229 0054 1B78     		ldrb	r3, [r3]
 1230 0056 0F22     		movs	r2, #15
 1231 0058 9A40     		lsls	r2, r2, r3
 1232 005a 1300     		movs	r3, r2
 1233 005c DA43     		mvns	r2, r3
 1234 005e FB68     		ldr	r3, [r7, #12]
 1235 0060 1340     		ands	r3, r2
 1236 0062 FB60     		str	r3, [r7, #12]
1116:Generated_Source\PSoC4/CapSense_CSD.c ****     newRegisterValue |= (uint32)((uint32)CapSense_CSD_CSD_SENSE_PORT_MODE << pinHSIOMShift);
 1237              		.loc 1 1116 0
 1238 0064 1223     		movs	r3, #18
 1239 0066 FB18     		adds	r3, r7, r3
 1240 0068 1B78     		ldrb	r3, [r3]
 1241 006a 0422     		movs	r2, #4
 1242 006c 9A40     		lsls	r2, r2, r3
 1243 006e 1300     		movs	r3, r2
 1244 0070 FA68     		ldr	r2, [r7, #12]
 1245 0072 1343     		orrs	r3, r2
 1246 0074 FB60     		str	r3, [r7, #12]
1117:Generated_Source\PSoC4/CapSense_CSD.c **** 
1118:Generated_Source\PSoC4/CapSense_CSD.c ****     *CapSense_CSD_prtCfgTbl[port] &= (uint32)~((uint32)CapSense_CSD_CSD_PIN_MODE_MASK << pinModeShi
 1247              		.loc 1 1118 0
 1248 0076 144B     		ldr	r3, .L67+12
 1249 0078 7A69     		ldr	r2, [r7, #20]
 1250 007a 9200     		lsls	r2, r2, #2
 1251 007c D358     		ldr	r3, [r2, r3]
 1252 007e 124A     		ldr	r2, .L67+12
 1253 0080 7969     		ldr	r1, [r7, #20]
 1254 0082 8900     		lsls	r1, r1, #2
 1255 0084 8A58     		ldr	r2, [r1, r2]
 1256 0086 1268     		ldr	r2, [r2]
 1257 0088 1321     		movs	r1, #19
 1258 008a 7918     		adds	r1, r7, r1
 1259 008c 0978     		ldrb	r1, [r1]
 1260 008e 0720     		movs	r0, #7
 1261 0090 8840     		lsls	r0, r0, r1
 1262 0092 0100     		movs	r1, r0
 1263 0094 C943     		mvns	r1, r1
ARM GAS  C:\Users\SHOZO\AppData\Local\Temp\cc2WcnYb.s 			page 43


 1264 0096 0A40     		ands	r2, r1
 1265 0098 1A60     		str	r2, [r3]
1119:Generated_Source\PSoC4/CapSense_CSD.c ****     *CapSense_CSD_prtSelTbl[port] = newRegisterValue;
 1266              		.loc 1 1119 0
 1267 009a 0A4B     		ldr	r3, .L67+8
 1268 009c 7A69     		ldr	r2, [r7, #20]
 1269 009e 9200     		lsls	r2, r2, #2
 1270 00a0 D358     		ldr	r3, [r2, r3]
 1271 00a2 FA68     		ldr	r2, [r7, #12]
 1272 00a4 1A60     		str	r2, [r3]
1120:Generated_Source\PSoC4/CapSense_CSD.c **** 
1121:Generated_Source\PSoC4/CapSense_CSD.c ****     CyExitCriticalSection(interruptState);
 1273              		.loc 1 1121 0
 1274 00a6 1123     		movs	r3, #17
 1275 00a8 FB18     		adds	r3, r7, r3
 1276 00aa 1B78     		ldrb	r3, [r3]
 1277 00ac 1800     		movs	r0, r3
 1278 00ae FFF7FEFF 		bl	CyExitCriticalSection
1122:Generated_Source\PSoC4/CapSense_CSD.c **** }
 1279              		.loc 1 1122 0
 1280 00b2 C046     		nop
 1281 00b4 BD46     		mov	sp, r7
 1282 00b6 07B0     		add	sp, sp, #28
 1283              		@ sp needed
 1284 00b8 90BD     		pop	{r4, r7, pc}
 1285              	.L68:
 1286 00ba C046     		.align	2
 1287              	.L67:
 1288 00bc 00000000 		.word	CapSense_CSD_portTable
 1289 00c0 00000000 		.word	CapSense_CSD_pinShiftTbl
 1290 00c4 00000000 		.word	CapSense_CSD_prtSelTbl
 1291 00c8 00000000 		.word	CapSense_CSD_prtCfgTbl
 1292              		.cfi_endproc
 1293              	.LFE47:
 1294              		.size	CapSense_CSD_EnableSensor, .-CapSense_CSD_EnableSensor
 1295              		.section	.text.CapSense_CSD_DisableSensor,"ax",%progbits
 1296              		.align	2
 1297              		.global	CapSense_CSD_DisableSensor
 1298              		.code	16
 1299              		.thumb_func
 1300              		.type	CapSense_CSD_DisableSensor, %function
 1301              	CapSense_CSD_DisableSensor:
 1302              	.LFB48:
1123:Generated_Source\PSoC4/CapSense_CSD.c **** 
1124:Generated_Source\PSoC4/CapSense_CSD.c **** 
1125:Generated_Source\PSoC4/CapSense_CSD.c **** /*******************************************************************************
1126:Generated_Source\PSoC4/CapSense_CSD.c **** * Function Name: CapSense_CSD_DisableSensor
1127:Generated_Source\PSoC4/CapSense_CSD.c **** ********************************************************************************
1128:Generated_Source\PSoC4/CapSense_CSD.c **** *
1129:Generated_Source\PSoC4/CapSense_CSD.c **** * Summary:
1130:Generated_Source\PSoC4/CapSense_CSD.c **** *  Disables the selected sensor. The corresponding pin is disconnected from the
1131:Generated_Source\PSoC4/CapSense_CSD.c **** *  Analog Mux Bus and connected to GND, High_Z or Shield electrode.
1132:Generated_Source\PSoC4/CapSense_CSD.c **** *
1133:Generated_Source\PSoC4/CapSense_CSD.c **** * Parameters:
1134:Generated_Source\PSoC4/CapSense_CSD.c **** *  sensor:  Sensor number
1135:Generated_Source\PSoC4/CapSense_CSD.c **** *
1136:Generated_Source\PSoC4/CapSense_CSD.c **** * Return:
ARM GAS  C:\Users\SHOZO\AppData\Local\Temp\cc2WcnYb.s 			page 44


1137:Generated_Source\PSoC4/CapSense_CSD.c **** *  None
1138:Generated_Source\PSoC4/CapSense_CSD.c **** *
1139:Generated_Source\PSoC4/CapSense_CSD.c **** * Global Variables:
1140:Generated_Source\PSoC4/CapSense_CSD.c **** *  CapSense_CSD_portTable[] - used to store the port number that pin
1141:Generated_Source\PSoC4/CapSense_CSD.c **** *  belongs to for each sensor.
1142:Generated_Source\PSoC4/CapSense_CSD.c **** *  CapSense_CSD_pinShiftTbl[] - used to store position of pin that
1143:Generated_Source\PSoC4/CapSense_CSD.c **** *  configured as a sensor in the port.
1144:Generated_Source\PSoC4/CapSense_CSD.c **** *  CapSense_CSD_prtSelTbl[] - Contains pointers to the HSIOM
1145:Generated_Source\PSoC4/CapSense_CSD.c **** *  registers for each port.
1146:Generated_Source\PSoC4/CapSense_CSD.c **** *  CapSense_CSD_PrtCfgTb[] - Contains pointers to the port config
1147:Generated_Source\PSoC4/CapSense_CSD.c **** *  registers for each port.
1148:Generated_Source\PSoC4/CapSense_CSD.c **** *
1149:Generated_Source\PSoC4/CapSense_CSD.c **** * Side Effects:
1150:Generated_Source\PSoC4/CapSense_CSD.c **** *  None
1151:Generated_Source\PSoC4/CapSense_CSD.c **** *
1152:Generated_Source\PSoC4/CapSense_CSD.c **** *******************************************************************************/
1153:Generated_Source\PSoC4/CapSense_CSD.c **** void CapSense_CSD_DisableSensor(uint32 sensor)
1154:Generated_Source\PSoC4/CapSense_CSD.c **** {
 1303              		.loc 1 1154 0
 1304              		.cfi_startproc
 1305              		@ args = 0, pretend = 0, frame = 32
 1306              		@ frame_needed = 1, uses_anonymous_args = 0
 1307 0000 90B5     		push	{r4, r7, lr}
 1308              		.cfi_def_cfa_offset 12
 1309              		.cfi_offset 4, -12
 1310              		.cfi_offset 7, -8
 1311              		.cfi_offset 14, -4
 1312 0002 89B0     		sub	sp, sp, #36
 1313              		.cfi_def_cfa_offset 48
 1314 0004 00AF     		add	r7, sp, #0
 1315              		.cfi_def_cfa_register 7
 1316 0006 7860     		str	r0, [r7, #4]
1155:Generated_Source\PSoC4/CapSense_CSD.c ****     uint8 interruptState;
1156:Generated_Source\PSoC4/CapSense_CSD.c ****     uint32 newRegisterValue;
1157:Generated_Source\PSoC4/CapSense_CSD.c **** 
1158:Generated_Source\PSoC4/CapSense_CSD.c ****     uint32 port = (uint32) CapSense_CSD_portTable[sensor];
 1317              		.loc 1 1158 0
 1318 0008 464A     		ldr	r2, .L74
 1319 000a 7B68     		ldr	r3, [r7, #4]
 1320 000c D318     		adds	r3, r2, r3
 1321 000e 1B78     		ldrb	r3, [r3]
 1322 0010 BB61     		str	r3, [r7, #24]
1159:Generated_Source\PSoC4/CapSense_CSD.c ****     uint8  pinHSIOMShift = CapSense_CSD_pinShiftTbl[sensor] * CapSense_CSD_HSIOM_PIN_CFG_SIZE;
 1323              		.loc 1 1159 0
 1324 0012 454A     		ldr	r2, .L74+4
 1325 0014 7B68     		ldr	r3, [r7, #4]
 1326 0016 D318     		adds	r3, r2, r3
 1327 0018 1A78     		ldrb	r2, [r3]
 1328 001a 1723     		movs	r3, #23
 1329 001c FB18     		adds	r3, r7, r3
 1330 001e 9200     		lsls	r2, r2, #2
 1331 0020 1A70     		strb	r2, [r3]
1160:Generated_Source\PSoC4/CapSense_CSD.c ****     uint8  pinModeShift = CapSense_CSD_pinShiftTbl[sensor]  * CapSense_CSD_PC_PIN_CFG_SIZE;
 1332              		.loc 1 1160 0
 1333 0022 414A     		ldr	r2, .L74+4
 1334 0024 7B68     		ldr	r3, [r7, #4]
 1335 0026 D318     		adds	r3, r2, r3
ARM GAS  C:\Users\SHOZO\AppData\Local\Temp\cc2WcnYb.s 			page 45


 1336 0028 1B78     		ldrb	r3, [r3]
 1337 002a 1622     		movs	r2, #22
 1338 002c BA18     		adds	r2, r7, r2
 1339 002e 191C     		adds	r1, r3, #0
 1340 0030 0B1C     		adds	r3, r1, #0
 1341 0032 DB18     		adds	r3, r3, r3
 1342 0034 5B18     		adds	r3, r3, r1
 1343 0036 1370     		strb	r3, [r2]
1161:Generated_Source\PSoC4/CapSense_CSD.c **** 
1162:Generated_Source\PSoC4/CapSense_CSD.c ****     uint32 inactiveConnect = CapSense_CSD_SNS_HIZANALOG_CONNECT;
 1344              		.loc 1 1162 0
 1345 0038 0023     		movs	r3, #0
 1346 003a FB61     		str	r3, [r7, #28]
1163:Generated_Source\PSoC4/CapSense_CSD.c ****     uint32 sensorState = CapSense_CSD_unscannedSnsDriveMode[sensor];
 1347              		.loc 1 1163 0
 1348 003c 3B4A     		ldr	r2, .L74+8
 1349 003e 7B68     		ldr	r3, [r7, #4]
 1350 0040 D318     		adds	r3, r2, r3
 1351 0042 1B78     		ldrb	r3, [r3]
 1352 0044 3B61     		str	r3, [r7, #16]
1164:Generated_Source\PSoC4/CapSense_CSD.c **** 
1165:Generated_Source\PSoC4/CapSense_CSD.c ****     *CapSense_CSD_prtSelTbl[port] &= ~(CapSense_CSD_CSD_HSIOM_MASK << pinHSIOMShift);
 1353              		.loc 1 1165 0
 1354 0046 3A4B     		ldr	r3, .L74+12
 1355 0048 BA69     		ldr	r2, [r7, #24]
 1356 004a 9200     		lsls	r2, r2, #2
 1357 004c D358     		ldr	r3, [r2, r3]
 1358 004e 384A     		ldr	r2, .L74+12
 1359 0050 B969     		ldr	r1, [r7, #24]
 1360 0052 8900     		lsls	r1, r1, #2
 1361 0054 8A58     		ldr	r2, [r1, r2]
 1362 0056 1268     		ldr	r2, [r2]
 1363 0058 1721     		movs	r1, #23
 1364 005a 7918     		adds	r1, r7, r1
 1365 005c 0978     		ldrb	r1, [r1]
 1366 005e 0F20     		movs	r0, #15
 1367 0060 8840     		lsls	r0, r0, r1
 1368 0062 0100     		movs	r1, r0
 1369 0064 C943     		mvns	r1, r1
 1370 0066 0A40     		ands	r2, r1
 1371 0068 1A60     		str	r2, [r3]
1166:Generated_Source\PSoC4/CapSense_CSD.c **** 
1167:Generated_Source\PSoC4/CapSense_CSD.c ****     #if(CapSense_CSD_IS_SHIELD_ENABLE != 0)
1168:Generated_Source\PSoC4/CapSense_CSD.c ****     if(sensorState != (uint32)CapSense_CSD__SHIELD)
 1372              		.loc 1 1168 0
 1373 006a 3B69     		ldr	r3, [r7, #16]
 1374 006c 022B     		cmp	r3, #2
 1375 006e 43D0     		beq	.L70
1169:Generated_Source\PSoC4/CapSense_CSD.c ****     {
1170:Generated_Source\PSoC4/CapSense_CSD.c ****     #else
1171:Generated_Source\PSoC4/CapSense_CSD.c ****         /* Connected to Ground if shield is disabled */
1172:Generated_Source\PSoC4/CapSense_CSD.c ****         if(sensorState == (uint32)CapSense_CSD__SHIELD)
1173:Generated_Source\PSoC4/CapSense_CSD.c ****         {
1174:Generated_Source\PSoC4/CapSense_CSD.c ****             sensorState = (uint32)CapSense_CSD__GROUND;
1175:Generated_Source\PSoC4/CapSense_CSD.c ****         }
1176:Generated_Source\PSoC4/CapSense_CSD.c ****     #endif /* (CapSense_CSD_IS_SHIELD_ENABLE) */
1177:Generated_Source\PSoC4/CapSense_CSD.c ****         if(sensorState != (uint32)CapSense_CSD__HIZ_ANALOG)
ARM GAS  C:\Users\SHOZO\AppData\Local\Temp\cc2WcnYb.s 			page 46


 1376              		.loc 1 1177 0
 1377 0070 3B69     		ldr	r3, [r7, #16]
 1378 0072 012B     		cmp	r3, #1
 1379 0074 01D0     		beq	.L71
1178:Generated_Source\PSoC4/CapSense_CSD.c ****         {
1179:Generated_Source\PSoC4/CapSense_CSD.c ****             /* Connected to Ground */
1180:Generated_Source\PSoC4/CapSense_CSD.c ****             inactiveConnect = (uint32)CapSense_CSD_SNS_GROUND_CONNECT;
 1380              		.loc 1 1180 0
 1381 0076 0623     		movs	r3, #6
 1382 0078 FB61     		str	r3, [r7, #28]
 1383              	.L71:
1181:Generated_Source\PSoC4/CapSense_CSD.c ****         }
1182:Generated_Source\PSoC4/CapSense_CSD.c **** 
1183:Generated_Source\PSoC4/CapSense_CSD.c ****         interruptState = CyEnterCriticalSection();
 1384              		.loc 1 1183 0
 1385 007a 0F23     		movs	r3, #15
 1386 007c FC18     		adds	r4, r7, r3
 1387 007e FFF7FEFF 		bl	CyEnterCriticalSection
 1388 0082 0300     		movs	r3, r0
 1389 0084 2370     		strb	r3, [r4]
1184:Generated_Source\PSoC4/CapSense_CSD.c **** 
1185:Generated_Source\PSoC4/CapSense_CSD.c ****         /* Set drive mode */
1186:Generated_Source\PSoC4/CapSense_CSD.c ****         newRegisterValue = *CapSense_CSD_prtCfgTbl[port];
 1390              		.loc 1 1186 0
 1391 0086 2B4B     		ldr	r3, .L74+16
 1392 0088 BA69     		ldr	r2, [r7, #24]
 1393 008a 9200     		lsls	r2, r2, #2
 1394 008c D358     		ldr	r3, [r2, r3]
 1395 008e 1B68     		ldr	r3, [r3]
 1396 0090 BB60     		str	r3, [r7, #8]
1187:Generated_Source\PSoC4/CapSense_CSD.c ****         newRegisterValue &= ~(CapSense_CSD_CSD_PIN_MODE_MASK << pinModeShift);
 1397              		.loc 1 1187 0
 1398 0092 1623     		movs	r3, #22
 1399 0094 FB18     		adds	r3, r7, r3
 1400 0096 1B78     		ldrb	r3, [r3]
 1401 0098 0722     		movs	r2, #7
 1402 009a 9A40     		lsls	r2, r2, r3
 1403 009c 1300     		movs	r3, r2
 1404 009e DA43     		mvns	r2, r3
 1405 00a0 BB68     		ldr	r3, [r7, #8]
 1406 00a2 1340     		ands	r3, r2
 1407 00a4 BB60     		str	r3, [r7, #8]
1188:Generated_Source\PSoC4/CapSense_CSD.c ****         newRegisterValue |=  (uint32)(inactiveConnect << pinModeShift);
 1408              		.loc 1 1188 0
 1409 00a6 1623     		movs	r3, #22
 1410 00a8 FB18     		adds	r3, r7, r3
 1411 00aa 1B78     		ldrb	r3, [r3]
 1412 00ac FA69     		ldr	r2, [r7, #28]
 1413 00ae 9A40     		lsls	r2, r2, r3
 1414 00b0 1300     		movs	r3, r2
 1415 00b2 BA68     		ldr	r2, [r7, #8]
 1416 00b4 1343     		orrs	r3, r2
 1417 00b6 BB60     		str	r3, [r7, #8]
1189:Generated_Source\PSoC4/CapSense_CSD.c ****         *CapSense_CSD_prtCfgTbl[port] =  newRegisterValue;
 1418              		.loc 1 1189 0
 1419 00b8 1E4B     		ldr	r3, .L74+16
 1420 00ba BA69     		ldr	r2, [r7, #24]
ARM GAS  C:\Users\SHOZO\AppData\Local\Temp\cc2WcnYb.s 			page 47


 1421 00bc 9200     		lsls	r2, r2, #2
 1422 00be D358     		ldr	r3, [r2, r3]
 1423 00c0 BA68     		ldr	r2, [r7, #8]
 1424 00c2 1A60     		str	r2, [r3]
1190:Generated_Source\PSoC4/CapSense_CSD.c **** 
1191:Generated_Source\PSoC4/CapSense_CSD.c ****         CyExitCriticalSection(interruptState);
 1425              		.loc 1 1191 0
 1426 00c4 0F23     		movs	r3, #15
 1427 00c6 FB18     		adds	r3, r7, r3
 1428 00c8 1B78     		ldrb	r3, [r3]
 1429 00ca 1800     		movs	r0, r3
 1430 00cc FFF7FEFF 		bl	CyExitCriticalSection
1192:Generated_Source\PSoC4/CapSense_CSD.c **** 
1193:Generated_Source\PSoC4/CapSense_CSD.c ****         *CapSense_CSD_prtDRTbl[port]  &=  (uint32)~(uint32)((uint32)1u << CapSense_CSD_pinShiftTbl[
 1431              		.loc 1 1193 0
 1432 00d0 194B     		ldr	r3, .L74+20
 1433 00d2 BA69     		ldr	r2, [r7, #24]
 1434 00d4 9200     		lsls	r2, r2, #2
 1435 00d6 D358     		ldr	r3, [r2, r3]
 1436 00d8 174A     		ldr	r2, .L74+20
 1437 00da B969     		ldr	r1, [r7, #24]
 1438 00dc 8900     		lsls	r1, r1, #2
 1439 00de 8A58     		ldr	r2, [r1, r2]
 1440 00e0 1268     		ldr	r2, [r2]
 1441 00e2 1148     		ldr	r0, .L74+4
 1442 00e4 7968     		ldr	r1, [r7, #4]
 1443 00e6 4118     		adds	r1, r0, r1
 1444 00e8 0978     		ldrb	r1, [r1]
 1445 00ea 0800     		movs	r0, r1
 1446 00ec 0121     		movs	r1, #1
 1447 00ee 8140     		lsls	r1, r1, r0
 1448 00f0 C943     		mvns	r1, r1
 1449 00f2 0A40     		ands	r2, r1
 1450 00f4 1A60     		str	r2, [r3]
1194:Generated_Source\PSoC4/CapSense_CSD.c ****     #if(CapSense_CSD_IS_SHIELD_ENABLE != 0)
1195:Generated_Source\PSoC4/CapSense_CSD.c ****     }
1196:Generated_Source\PSoC4/CapSense_CSD.c ****     else
1197:Generated_Source\PSoC4/CapSense_CSD.c ****     {
1198:Generated_Source\PSoC4/CapSense_CSD.c ****         /* Connect to Shield */
1199:Generated_Source\PSoC4/CapSense_CSD.c ****         *CapSense_CSD_prtSelTbl[port] |= (CapSense_CSD_CSD_SHIELD_PORT_MODE << pinHSIOMShift);
1200:Generated_Source\PSoC4/CapSense_CSD.c ****     }
1201:Generated_Source\PSoC4/CapSense_CSD.c ****     #endif /* (CapSense_CSD_IS_SHIELD_ENABLE) */
1202:Generated_Source\PSoC4/CapSense_CSD.c **** }
 1451              		.loc 1 1202 0
 1452 00f6 10E0     		b	.L73
 1453              	.L70:
1199:Generated_Source\PSoC4/CapSense_CSD.c ****     }
 1454              		.loc 1 1199 0
 1455 00f8 0D4B     		ldr	r3, .L74+12
 1456 00fa BA69     		ldr	r2, [r7, #24]
 1457 00fc 9200     		lsls	r2, r2, #2
 1458 00fe D358     		ldr	r3, [r2, r3]
 1459 0100 0B4A     		ldr	r2, .L74+12
 1460 0102 B969     		ldr	r1, [r7, #24]
 1461 0104 8900     		lsls	r1, r1, #2
 1462 0106 8A58     		ldr	r2, [r1, r2]
 1463 0108 1168     		ldr	r1, [r2]
ARM GAS  C:\Users\SHOZO\AppData\Local\Temp\cc2WcnYb.s 			page 48


 1464 010a 1722     		movs	r2, #23
 1465 010c BA18     		adds	r2, r7, r2
 1466 010e 1278     		ldrb	r2, [r2]
 1467 0110 0520     		movs	r0, #5
 1468 0112 9040     		lsls	r0, r0, r2
 1469 0114 0200     		movs	r2, r0
 1470 0116 0A43     		orrs	r2, r1
 1471 0118 1A60     		str	r2, [r3]
 1472              	.L73:
 1473              		.loc 1 1202 0
 1474 011a C046     		nop
 1475 011c BD46     		mov	sp, r7
 1476 011e 09B0     		add	sp, sp, #36
 1477              		@ sp needed
 1478 0120 90BD     		pop	{r4, r7, pc}
 1479              	.L75:
 1480 0122 C046     		.align	2
 1481              	.L74:
 1482 0124 00000000 		.word	CapSense_CSD_portTable
 1483 0128 00000000 		.word	CapSense_CSD_pinShiftTbl
 1484 012c 00000000 		.word	CapSense_CSD_unscannedSnsDriveMode
 1485 0130 00000000 		.word	CapSense_CSD_prtSelTbl
 1486 0134 00000000 		.word	CapSense_CSD_prtCfgTbl
 1487 0138 00000000 		.word	CapSense_CSD_prtDRTbl
 1488              		.cfi_endproc
 1489              	.LFE48:
 1490              		.size	CapSense_CSD_DisableSensor, .-CapSense_CSD_DisableSensor
 1491              		.section	.text.CapSense_CSD_SetDriveModeAllPins,"ax",%progbits
 1492              		.align	2
 1493              		.global	CapSense_CSD_SetDriveModeAllPins
 1494              		.code	16
 1495              		.thumb_func
 1496              		.type	CapSense_CSD_SetDriveModeAllPins, %function
 1497              	CapSense_CSD_SetDriveModeAllPins:
 1498              	.LFB49:
1203:Generated_Source\PSoC4/CapSense_CSD.c **** 
1204:Generated_Source\PSoC4/CapSense_CSD.c **** 
1205:Generated_Source\PSoC4/CapSense_CSD.c **** /*******************************************************************************
1206:Generated_Source\PSoC4/CapSense_CSD.c **** * Function Name: CapSense_CSD_SetDriveModeAllPins
1207:Generated_Source\PSoC4/CapSense_CSD.c **** ********************************************************************************
1208:Generated_Source\PSoC4/CapSense_CSD.c **** *
1209:Generated_Source\PSoC4/CapSense_CSD.c **** * Summary:
1210:Generated_Source\PSoC4/CapSense_CSD.c **** * This API sets the drive mode of port pins used by the CapSense
1211:Generated_Source\PSoC4/CapSense_CSD.c **** * component (sensors, guard, shield, shield tank and Cmod) to drive the
1212:Generated_Source\PSoC4/CapSense_CSD.c **** * mode specified by the argument.
1213:Generated_Source\PSoC4/CapSense_CSD.c **** *
1214:Generated_Source\PSoC4/CapSense_CSD.c **** * Parameters:
1215:Generated_Source\PSoC4/CapSense_CSD.c **** *  driveMode:  Drive mode definition.
1216:Generated_Source\PSoC4/CapSense_CSD.c **** *
1217:Generated_Source\PSoC4/CapSense_CSD.c **** * Return:
1218:Generated_Source\PSoC4/CapSense_CSD.c **** *  None
1219:Generated_Source\PSoC4/CapSense_CSD.c **** *
1220:Generated_Source\PSoC4/CapSense_CSD.c **** * Global Variables:
1221:Generated_Source\PSoC4/CapSense_CSD.c **** *  CapSense_CSD_portTable[] - used to store the port number that pin
1222:Generated_Source\PSoC4/CapSense_CSD.c **** *  belongs to for each sensor.
1223:Generated_Source\PSoC4/CapSense_CSD.c **** *  CapSense_CSD_pinShiftTbl[] - used to store position of pin that
1224:Generated_Source\PSoC4/CapSense_CSD.c **** *  configured as a sensor in the port.
ARM GAS  C:\Users\SHOZO\AppData\Local\Temp\cc2WcnYb.s 			page 49


1225:Generated_Source\PSoC4/CapSense_CSD.c **** *
1226:Generated_Source\PSoC4/CapSense_CSD.c **** * Side Effects:
1227:Generated_Source\PSoC4/CapSense_CSD.c **** *  This API shall be called only after CapSense component is stopped.
1228:Generated_Source\PSoC4/CapSense_CSD.c **** *
1229:Generated_Source\PSoC4/CapSense_CSD.c **** *******************************************************************************/
1230:Generated_Source\PSoC4/CapSense_CSD.c **** void CapSense_CSD_SetDriveModeAllPins(uint32 driveMode)
1231:Generated_Source\PSoC4/CapSense_CSD.c **** {
 1499              		.loc 1 1231 0
 1500              		.cfi_startproc
 1501              		@ args = 0, pretend = 0, frame = 24
 1502              		@ frame_needed = 1, uses_anonymous_args = 0
 1503 0000 80B5     		push	{r7, lr}
 1504              		.cfi_def_cfa_offset 8
 1505              		.cfi_offset 7, -8
 1506              		.cfi_offset 14, -4
 1507 0002 86B0     		sub	sp, sp, #24
 1508              		.cfi_def_cfa_offset 32
 1509 0004 00AF     		add	r7, sp, #0
 1510              		.cfi_def_cfa_register 7
 1511 0006 7860     		str	r0, [r7, #4]
1232:Generated_Source\PSoC4/CapSense_CSD.c ****     uint8 curSensor;
1233:Generated_Source\PSoC4/CapSense_CSD.c ****     #if (CapSense_CSD_IS_COMPLEX_SCANSLOTS)
1234:Generated_Source\PSoC4/CapSense_CSD.c ****         uint8 snsNumber;
1235:Generated_Source\PSoC4/CapSense_CSD.c ****         uint8 snsType;
1236:Generated_Source\PSoC4/CapSense_CSD.c ****     #endif  /* CapSense_CSD_IS_COMPLEX_SCANSLOTS */
1237:Generated_Source\PSoC4/CapSense_CSD.c ****     uint32 prtNumberTmp;
1238:Generated_Source\PSoC4/CapSense_CSD.c ****     uint32 pinNumberTmp;
1239:Generated_Source\PSoC4/CapSense_CSD.c **** 
1240:Generated_Source\PSoC4/CapSense_CSD.c ****     for(curSensor = 0u; curSensor < CapSense_CSD_TOTAL_SENSOR_COUNT; curSensor++)
 1512              		.loc 1 1240 0
 1513 0008 1723     		movs	r3, #23
 1514 000a FB18     		adds	r3, r7, r3
 1515 000c 0022     		movs	r2, #0
 1516 000e 1A70     		strb	r2, [r3]
 1517 0010 18E0     		b	.L77
 1518              	.L78:
1241:Generated_Source\PSoC4/CapSense_CSD.c ****     {
1242:Generated_Source\PSoC4/CapSense_CSD.c ****         #if (CapSense_CSD_IS_COMPLEX_SCANSLOTS)
1243:Generated_Source\PSoC4/CapSense_CSD.c ****             /* Read sensor type: single or complex */
1244:Generated_Source\PSoC4/CapSense_CSD.c ****             snsType = CapSense_CSD_portTable[curSensor];
1245:Generated_Source\PSoC4/CapSense_CSD.c **** 
1246:Generated_Source\PSoC4/CapSense_CSD.c ****             /* Check if sensor is complex */
1247:Generated_Source\PSoC4/CapSense_CSD.c ****             if ((snsType & CapSense_CSD_COMPLEX_SS_FLAG) == 0u)
1248:Generated_Source\PSoC4/CapSense_CSD.c ****             {
1249:Generated_Source\PSoC4/CapSense_CSD.c ****                 /* The sensor is not complex */
1250:Generated_Source\PSoC4/CapSense_CSD.c ****                 snsNumber = curSensor;
1251:Generated_Source\PSoC4/CapSense_CSD.c ****             }
1252:Generated_Source\PSoC4/CapSense_CSD.c ****             else
1253:Generated_Source\PSoC4/CapSense_CSD.c ****             {
1254:Generated_Source\PSoC4/CapSense_CSD.c ****                 /* Get dedicated sensor ID of the complex sensor */
1255:Generated_Source\PSoC4/CapSense_CSD.c ****                 snsType &= ~CapSense_CSD_COMPLEX_SS_FLAG;
1256:Generated_Source\PSoC4/CapSense_CSD.c ****                 snsNumber = CapSense_CSD_indexTable[snsType];
1257:Generated_Source\PSoC4/CapSense_CSD.c ****             }
1258:Generated_Source\PSoC4/CapSense_CSD.c **** 
1259:Generated_Source\PSoC4/CapSense_CSD.c ****             prtNumberTmp = CapSense_CSD_portTable[snsNumber];
1260:Generated_Source\PSoC4/CapSense_CSD.c ****             pinNumberTmp = CapSense_CSD_pinShiftTbl[snsNumber];
1261:Generated_Source\PSoC4/CapSense_CSD.c ****         #else
ARM GAS  C:\Users\SHOZO\AppData\Local\Temp\cc2WcnYb.s 			page 50


1262:Generated_Source\PSoC4/CapSense_CSD.c ****             prtNumberTmp = CapSense_CSD_portTable[curSensor];
 1519              		.loc 1 1262 0 discriminator 3
 1520 0012 1723     		movs	r3, #23
 1521 0014 FB18     		adds	r3, r7, r3
 1522 0016 1B78     		ldrb	r3, [r3]
 1523 0018 154A     		ldr	r2, .L79
 1524 001a D35C     		ldrb	r3, [r2, r3]
 1525 001c 3B61     		str	r3, [r7, #16]
1263:Generated_Source\PSoC4/CapSense_CSD.c ****             pinNumberTmp = CapSense_CSD_pinShiftTbl[curSensor];
 1526              		.loc 1 1263 0 discriminator 3
 1527 001e 1723     		movs	r3, #23
 1528 0020 FB18     		adds	r3, r7, r3
 1529 0022 1B78     		ldrb	r3, [r3]
 1530 0024 134A     		ldr	r2, .L79+4
 1531 0026 D35C     		ldrb	r3, [r2, r3]
 1532 0028 FB60     		str	r3, [r7, #12]
1264:Generated_Source\PSoC4/CapSense_CSD.c ****         #endif  /* CapSense_CSD_IS_COMPLEX_SCANSLOTS */
1265:Generated_Source\PSoC4/CapSense_CSD.c **** 
1266:Generated_Source\PSoC4/CapSense_CSD.c ****         CapSense_CSD_SetPinDriveMode(driveMode, pinNumberTmp, prtNumberTmp);
 1533              		.loc 1 1266 0 discriminator 3
 1534 002a 3A69     		ldr	r2, [r7, #16]
 1535 002c F968     		ldr	r1, [r7, #12]
 1536 002e 7B68     		ldr	r3, [r7, #4]
 1537 0030 1800     		movs	r0, r3
 1538 0032 FFF7FEFF 		bl	CapSense_CSD_SetPinDriveMode
1240:Generated_Source\PSoC4/CapSense_CSD.c ****     {
 1539              		.loc 1 1240 0 discriminator 3
 1540 0036 1723     		movs	r3, #23
 1541 0038 FB18     		adds	r3, r7, r3
 1542 003a 1A78     		ldrb	r2, [r3]
 1543 003c 1723     		movs	r3, #23
 1544 003e FB18     		adds	r3, r7, r3
 1545 0040 0132     		adds	r2, r2, #1
 1546 0042 1A70     		strb	r2, [r3]
 1547              	.L77:
1240:Generated_Source\PSoC4/CapSense_CSD.c ****     {
 1548              		.loc 1 1240 0 is_stmt 0 discriminator 1
 1549 0044 1723     		movs	r3, #23
 1550 0046 FB18     		adds	r3, r7, r3
 1551 0048 1B78     		ldrb	r3, [r3]
 1552 004a 0D2B     		cmp	r3, #13
 1553 004c E1D9     		bls	.L78
1267:Generated_Source\PSoC4/CapSense_CSD.c ****     }
1268:Generated_Source\PSoC4/CapSense_CSD.c **** 
1269:Generated_Source\PSoC4/CapSense_CSD.c ****     CapSense_CSD_SetPinDriveMode(driveMode, (uint32)CapSense_CSD_CMOD_PIN_NUMBER, (uint32)CapSense_
 1554              		.loc 1 1269 0 is_stmt 1
 1555 004e 7B68     		ldr	r3, [r7, #4]
 1556 0050 0422     		movs	r2, #4
 1557 0052 0221     		movs	r1, #2
 1558 0054 1800     		movs	r0, r3
 1559 0056 FFF7FEFF 		bl	CapSense_CSD_SetPinDriveMode
1270:Generated_Source\PSoC4/CapSense_CSD.c **** 
1271:Generated_Source\PSoC4/CapSense_CSD.c ****     #if(0u != CapSense_CSD_CSH_TANK_ENABLE)
1272:Generated_Source\PSoC4/CapSense_CSD.c ****         CapSense_CSD_SetPinDriveMode(driveMode, (uint32)CapSense_CSD_CTANK_PIN_NUMBER, (uint32)CapS
1273:Generated_Source\PSoC4/CapSense_CSD.c ****     #endif /* (0u != CapSense_CSD_CSH_TANK_ENABLE) */
1274:Generated_Source\PSoC4/CapSense_CSD.c **** 
1275:Generated_Source\PSoC4/CapSense_CSD.c ****     #if(0u != CapSense_CSD_IS_SHIELD_ENABLE)
ARM GAS  C:\Users\SHOZO\AppData\Local\Temp\cc2WcnYb.s 			page 51


1276:Generated_Source\PSoC4/CapSense_CSD.c ****         CapSense_CSD_SetPinDriveMode(driveMode, (uint32)CapSense_CSD_SHIELD_PIN_NUMBER, (uint32)Cap
 1560              		.loc 1 1276 0
 1561 005a 7B68     		ldr	r3, [r7, #4]
 1562 005c 0122     		movs	r2, #1
 1563 005e 0721     		movs	r1, #7
 1564 0060 1800     		movs	r0, r3
 1565 0062 FFF7FEFF 		bl	CapSense_CSD_SetPinDriveMode
1277:Generated_Source\PSoC4/CapSense_CSD.c ****     #endif /* (0u != CapSense_CSD_IS_SHIELD_ENABLE) */
1278:Generated_Source\PSoC4/CapSense_CSD.c **** }
 1566              		.loc 1 1278 0
 1567 0066 C046     		nop
 1568 0068 BD46     		mov	sp, r7
 1569 006a 06B0     		add	sp, sp, #24
 1570              		@ sp needed
 1571 006c 80BD     		pop	{r7, pc}
 1572              	.L80:
 1573 006e C046     		.align	2
 1574              	.L79:
 1575 0070 00000000 		.word	CapSense_CSD_portTable
 1576 0074 00000000 		.word	CapSense_CSD_pinShiftTbl
 1577              		.cfi_endproc
 1578              	.LFE49:
 1579              		.size	CapSense_CSD_SetDriveModeAllPins, .-CapSense_CSD_SetDriveModeAllPins
 1580              		.section	.text.CapSense_CSD_RestoreDriveModeAllPins,"ax",%progbits
 1581              		.align	2
 1582              		.global	CapSense_CSD_RestoreDriveModeAllPins
 1583              		.code	16
 1584              		.thumb_func
 1585              		.type	CapSense_CSD_RestoreDriveModeAllPins, %function
 1586              	CapSense_CSD_RestoreDriveModeAllPins:
 1587              	.LFB50:
1279:Generated_Source\PSoC4/CapSense_CSD.c **** 
1280:Generated_Source\PSoC4/CapSense_CSD.c **** 
1281:Generated_Source\PSoC4/CapSense_CSD.c **** /*******************************************************************************
1282:Generated_Source\PSoC4/CapSense_CSD.c **** * Function Name: CapSense_CSD_RestoreDriveModeAllPins
1283:Generated_Source\PSoC4/CapSense_CSD.c **** ********************************************************************************
1284:Generated_Source\PSoC4/CapSense_CSD.c **** *
1285:Generated_Source\PSoC4/CapSense_CSD.c **** * Summary:
1286:Generated_Source\PSoC4/CapSense_CSD.c **** *  This API restores the drive for all the CapSense port pins to the original
1287:Generated_Source\PSoC4/CapSense_CSD.c **** *  state.
1288:Generated_Source\PSoC4/CapSense_CSD.c **** *
1289:Generated_Source\PSoC4/CapSense_CSD.c **** * Parameters:
1290:Generated_Source\PSoC4/CapSense_CSD.c **** *  None
1291:Generated_Source\PSoC4/CapSense_CSD.c **** *
1292:Generated_Source\PSoC4/CapSense_CSD.c **** * Return:
1293:Generated_Source\PSoC4/CapSense_CSD.c **** *  None
1294:Generated_Source\PSoC4/CapSense_CSD.c **** *
1295:Generated_Source\PSoC4/CapSense_CSD.c **** * Global Variables:
1296:Generated_Source\PSoC4/CapSense_CSD.c **** *  CapSense_CSD_prtSelTbl[] - Contains pointers to the HSIOM
1297:Generated_Source\PSoC4/CapSense_CSD.c **** *  registers for each port.
1298:Generated_Source\PSoC4/CapSense_CSD.c **** *
1299:Generated_Source\PSoC4/CapSense_CSD.c **** * Side Effects:
1300:Generated_Source\PSoC4/CapSense_CSD.c **** *  This API is called only after the CapSense component is stopped.
1301:Generated_Source\PSoC4/CapSense_CSD.c **** *
1302:Generated_Source\PSoC4/CapSense_CSD.c **** *******************************************************************************/
1303:Generated_Source\PSoC4/CapSense_CSD.c **** void CapSense_CSD_RestoreDriveModeAllPins(void)
1304:Generated_Source\PSoC4/CapSense_CSD.c **** {
ARM GAS  C:\Users\SHOZO\AppData\Local\Temp\cc2WcnYb.s 			page 52


 1588              		.loc 1 1304 0
 1589              		.cfi_startproc
 1590              		@ args = 0, pretend = 0, frame = 8
 1591              		@ frame_needed = 1, uses_anonymous_args = 0
 1592 0000 80B5     		push	{r7, lr}
 1593              		.cfi_def_cfa_offset 8
 1594              		.cfi_offset 7, -8
 1595              		.cfi_offset 14, -4
 1596 0002 82B0     		sub	sp, sp, #8
 1597              		.cfi_def_cfa_offset 16
 1598 0004 00AF     		add	r7, sp, #0
 1599              		.cfi_def_cfa_register 7
1305:Generated_Source\PSoC4/CapSense_CSD.c ****     uint32 newRegisterValue;
1306:Generated_Source\PSoC4/CapSense_CSD.c **** 
1307:Generated_Source\PSoC4/CapSense_CSD.c ****     CapSense_CSD_SetDriveModeAllPins(CY_SYS_PINS_DM_ALG_HIZ);
 1600              		.loc 1 1307 0
 1601 0006 0020     		movs	r0, #0
 1602 0008 FFF7FEFF 		bl	CapSense_CSD_SetDriveModeAllPins
1308:Generated_Source\PSoC4/CapSense_CSD.c **** 
1309:Generated_Source\PSoC4/CapSense_CSD.c ****     newRegisterValue = CapSense_CSD_CMOD_CONNECTION_REG;
 1603              		.loc 1 1309 0
 1604 000c 104B     		ldr	r3, .L82
 1605 000e 1B68     		ldr	r3, [r3]
 1606 0010 7B60     		str	r3, [r7, #4]
1310:Generated_Source\PSoC4/CapSense_CSD.c ****     newRegisterValue &= ~(CapSense_CSD_CSD_CMOD_CONNECTION_MASK);
 1607              		.loc 1 1310 0
 1608 0012 7B68     		ldr	r3, [r7, #4]
 1609 0014 0F4A     		ldr	r2, .L82+4
 1610 0016 1340     		ands	r3, r2
 1611 0018 7B60     		str	r3, [r7, #4]
1311:Generated_Source\PSoC4/CapSense_CSD.c ****     newRegisterValue |= CapSense_CSD_CSD_CMOD_TO_AMUXBUS_A;
 1612              		.loc 1 1311 0
 1613 001a 7B68     		ldr	r3, [r7, #4]
 1614 001c C022     		movs	r2, #192
 1615 001e D200     		lsls	r2, r2, #3
 1616 0020 1343     		orrs	r3, r2
 1617 0022 7B60     		str	r3, [r7, #4]
1312:Generated_Source\PSoC4/CapSense_CSD.c ****     CapSense_CSD_CMOD_CONNECTION_REG = newRegisterValue;
 1618              		.loc 1 1312 0
 1619 0024 0A4B     		ldr	r3, .L82
 1620 0026 7A68     		ldr	r2, [r7, #4]
 1621 0028 1A60     		str	r2, [r3]
1313:Generated_Source\PSoC4/CapSense_CSD.c **** 
1314:Generated_Source\PSoC4/CapSense_CSD.c ****     #if(0u != CapSense_CSD_CSH_TANK_ENABLE)
1315:Generated_Source\PSoC4/CapSense_CSD.c ****         newRegisterValue = CapSense_CSD_CTANK_CONNECTION_REG;
1316:Generated_Source\PSoC4/CapSense_CSD.c ****         newRegisterValue &= ~(CapSense_CSD_CSD_CTANK_CONNECTION_MASK);
1317:Generated_Source\PSoC4/CapSense_CSD.c ****         newRegisterValue |= CapSense_CSD_CSD_CTANK_TO_AMUXBUS_B;
1318:Generated_Source\PSoC4/CapSense_CSD.c ****         CapSense_CSD_CTANK_CONNECTION_REG = newRegisterValue;
1319:Generated_Source\PSoC4/CapSense_CSD.c ****     #endif/* (0u != CapSense_CSD_CSH_TANK_ENABLE) */
1320:Generated_Source\PSoC4/CapSense_CSD.c **** 
1321:Generated_Source\PSoC4/CapSense_CSD.c ****     #if(0u != CapSense_CSD_IS_SHIELD_ENABLE)
1322:Generated_Source\PSoC4/CapSense_CSD.c ****         newRegisterValue = *CapSense_CSD_prtSelTbl[CapSense_CSD_SHIELD_PORT_NUMBER];
 1622              		.loc 1 1322 0
 1623 002a 0B4B     		ldr	r3, .L82+8
 1624 002c 1B68     		ldr	r3, [r3]
 1625 002e 7B60     		str	r3, [r7, #4]
1323:Generated_Source\PSoC4/CapSense_CSD.c ****         newRegisterValue &= ~(CapSense_CSD_CSD_HSIOM_MASK << ((uint32)CapSense_CSD_SHIELD_PIN_NUMBE
ARM GAS  C:\Users\SHOZO\AppData\Local\Temp\cc2WcnYb.s 			page 53


 1626              		.loc 1 1323 0
 1627 0030 7B68     		ldr	r3, [r7, #4]
 1628 0032 1B01     		lsls	r3, r3, #4
 1629 0034 1B09     		lsrs	r3, r3, #4
 1630 0036 7B60     		str	r3, [r7, #4]
1324:Generated_Source\PSoC4/CapSense_CSD.c ****         newRegisterValue |= (CapSense_CSD_CSD_SHIELD_PORT_MODE << ((uint32)CapSense_CSD_SHIELD_PIN_
 1631              		.loc 1 1324 0
 1632 0038 7B68     		ldr	r3, [r7, #4]
 1633 003a A022     		movs	r2, #160
 1634 003c D205     		lsls	r2, r2, #23
 1635 003e 1343     		orrs	r3, r2
 1636 0040 7B60     		str	r3, [r7, #4]
1325:Generated_Source\PSoC4/CapSense_CSD.c ****         *CapSense_CSD_prtSelTbl[CapSense_CSD_SHIELD_PORT_NUMBER] = newRegisterValue;
 1637              		.loc 1 1325 0
 1638 0042 054B     		ldr	r3, .L82+8
 1639 0044 7A68     		ldr	r2, [r7, #4]
 1640 0046 1A60     		str	r2, [r3]
1326:Generated_Source\PSoC4/CapSense_CSD.c ****     #endif /* (0u != CapSense_CSD_IS_SHIELD_ENABLE) */
1327:Generated_Source\PSoC4/CapSense_CSD.c **** }
 1641              		.loc 1 1327 0
 1642 0048 C046     		nop
 1643 004a BD46     		mov	sp, r7
 1644 004c 02B0     		add	sp, sp, #8
 1645              		@ sp needed
 1646 004e 80BD     		pop	{r7, pc}
 1647              	.L83:
 1648              		.align	2
 1649              	.L82:
 1650 0050 10000140 		.word	1073807376
 1651 0054 FFF0FFFF 		.word	-3841
 1652 0058 04000140 		.word	1073807364
 1653              		.cfi_endproc
 1654              	.LFE50:
 1655              		.size	CapSense_CSD_RestoreDriveModeAllPins, .-CapSense_CSD_RestoreDriveModeAllPins
 1656              		.section	.text.CapSense_CSD_SetPinDriveMode,"ax",%progbits
 1657              		.align	2
 1658              		.global	CapSense_CSD_SetPinDriveMode
 1659              		.code	16
 1660              		.thumb_func
 1661              		.type	CapSense_CSD_SetPinDriveMode, %function
 1662              	CapSense_CSD_SetPinDriveMode:
 1663              	.LFB51:
1328:Generated_Source\PSoC4/CapSense_CSD.c **** 
1329:Generated_Source\PSoC4/CapSense_CSD.c **** 
1330:Generated_Source\PSoC4/CapSense_CSD.c **** /*******************************************************************************
1331:Generated_Source\PSoC4/CapSense_CSD.c **** * Function Name: CapSense_CSD_SetPinDriveMode
1332:Generated_Source\PSoC4/CapSense_CSD.c **** ********************************************************************************
1333:Generated_Source\PSoC4/CapSense_CSD.c **** *
1334:Generated_Source\PSoC4/CapSense_CSD.c **** * Summary:
1335:Generated_Source\PSoC4/CapSense_CSD.c **** * This API sets the drive mode for the appropriate port/pin.
1336:Generated_Source\PSoC4/CapSense_CSD.c **** *
1337:Generated_Source\PSoC4/CapSense_CSD.c **** * Parameters:
1338:Generated_Source\PSoC4/CapSense_CSD.c **** *  driveMode:  Drive mode definition.
1339:Generated_Source\PSoC4/CapSense_CSD.c **** *  portNumber: contains port number (0, 1, 2).
1340:Generated_Source\PSoC4/CapSense_CSD.c **** *  pinNumber: contains pin number (0, 1, 2, ... , 7).
1341:Generated_Source\PSoC4/CapSense_CSD.c **** *
1342:Generated_Source\PSoC4/CapSense_CSD.c **** * Return:
ARM GAS  C:\Users\SHOZO\AppData\Local\Temp\cc2WcnYb.s 			page 54


1343:Generated_Source\PSoC4/CapSense_CSD.c **** *  None
1344:Generated_Source\PSoC4/CapSense_CSD.c **** *
1345:Generated_Source\PSoC4/CapSense_CSD.c **** * Global Variables:
1346:Generated_Source\PSoC4/CapSense_CSD.c **** *  CapSense_CSD_prtSelTbl[] - Contains pointers to the HSIOM
1347:Generated_Source\PSoC4/CapSense_CSD.c **** *  registers for each port.
1348:Generated_Source\PSoC4/CapSense_CSD.c **** *  CapSense_CSD_prtCfgTb[] - Contains pointers to the port config
1349:Generated_Source\PSoC4/CapSense_CSD.c **** *  registers for each port.
1350:Generated_Source\PSoC4/CapSense_CSD.c **** *
1351:Generated_Source\PSoC4/CapSense_CSD.c **** * Side Effects:
1352:Generated_Source\PSoC4/CapSense_CSD.c **** *  This API is called only after CapSense component is stopped.
1353:Generated_Source\PSoC4/CapSense_CSD.c **** *
1354:Generated_Source\PSoC4/CapSense_CSD.c **** *******************************************************************************/
1355:Generated_Source\PSoC4/CapSense_CSD.c **** void CapSense_CSD_SetPinDriveMode(uint32 driveMode, uint32 pinNumber, uint32 portNumber)
1356:Generated_Source\PSoC4/CapSense_CSD.c **** {
 1664              		.loc 1 1356 0
 1665              		.cfi_startproc
 1666              		@ args = 0, pretend = 0, frame = 24
 1667              		@ frame_needed = 1, uses_anonymous_args = 0
 1668 0000 80B5     		push	{r7, lr}
 1669              		.cfi_def_cfa_offset 8
 1670              		.cfi_offset 7, -8
 1671              		.cfi_offset 14, -4
 1672 0002 86B0     		sub	sp, sp, #24
 1673              		.cfi_def_cfa_offset 32
 1674 0004 00AF     		add	r7, sp, #0
 1675              		.cfi_def_cfa_register 7
 1676 0006 F860     		str	r0, [r7, #12]
 1677 0008 B960     		str	r1, [r7, #8]
 1678 000a 7A60     		str	r2, [r7, #4]
1357:Generated_Source\PSoC4/CapSense_CSD.c ****     uint32  pinModeShift;
1358:Generated_Source\PSoC4/CapSense_CSD.c ****     uint32 newRegisterValue;
1359:Generated_Source\PSoC4/CapSense_CSD.c **** 
1360:Generated_Source\PSoC4/CapSense_CSD.c ****     pinModeShift  = pinNumber * CapSense_CSD_PC_PIN_CFG_SIZE;
 1679              		.loc 1 1360 0
 1680 000c BA68     		ldr	r2, [r7, #8]
 1681 000e 1300     		movs	r3, r2
 1682 0010 5B00     		lsls	r3, r3, #1
 1683 0012 9B18     		adds	r3, r3, r2
 1684 0014 7B61     		str	r3, [r7, #20]
1361:Generated_Source\PSoC4/CapSense_CSD.c **** 
1362:Generated_Source\PSoC4/CapSense_CSD.c ****     newRegisterValue = *CapSense_CSD_prtCfgTbl[portNumber];
 1685              		.loc 1 1362 0
 1686 0016 0F4B     		ldr	r3, .L85
 1687 0018 7A68     		ldr	r2, [r7, #4]
 1688 001a 9200     		lsls	r2, r2, #2
 1689 001c D358     		ldr	r3, [r2, r3]
 1690 001e 1B68     		ldr	r3, [r3]
 1691 0020 3B61     		str	r3, [r7, #16]
1363:Generated_Source\PSoC4/CapSense_CSD.c ****     newRegisterValue &= ~(CapSense_CSD_CSD_PIN_MODE_MASK << pinModeShift);
 1692              		.loc 1 1363 0
 1693 0022 0722     		movs	r2, #7
 1694 0024 7B69     		ldr	r3, [r7, #20]
 1695 0026 9A40     		lsls	r2, r2, r3
 1696 0028 1300     		movs	r3, r2
 1697 002a DA43     		mvns	r2, r3
 1698 002c 3B69     		ldr	r3, [r7, #16]
 1699 002e 1340     		ands	r3, r2
ARM GAS  C:\Users\SHOZO\AppData\Local\Temp\cc2WcnYb.s 			page 55


 1700 0030 3B61     		str	r3, [r7, #16]
1364:Generated_Source\PSoC4/CapSense_CSD.c ****     newRegisterValue |=  (uint32)((uint32)driveMode << pinModeShift);
 1701              		.loc 1 1364 0
 1702 0032 FA68     		ldr	r2, [r7, #12]
 1703 0034 7B69     		ldr	r3, [r7, #20]
 1704 0036 9A40     		lsls	r2, r2, r3
 1705 0038 1300     		movs	r3, r2
 1706 003a 3A69     		ldr	r2, [r7, #16]
 1707 003c 1343     		orrs	r3, r2
 1708 003e 3B61     		str	r3, [r7, #16]
1365:Generated_Source\PSoC4/CapSense_CSD.c ****     *CapSense_CSD_prtCfgTbl[portNumber] =  newRegisterValue;
 1709              		.loc 1 1365 0
 1710 0040 044B     		ldr	r3, .L85
 1711 0042 7A68     		ldr	r2, [r7, #4]
 1712 0044 9200     		lsls	r2, r2, #2
 1713 0046 D358     		ldr	r3, [r2, r3]
 1714 0048 3A69     		ldr	r2, [r7, #16]
 1715 004a 1A60     		str	r2, [r3]
1366:Generated_Source\PSoC4/CapSense_CSD.c **** }
 1716              		.loc 1 1366 0
 1717 004c C046     		nop
 1718 004e BD46     		mov	sp, r7
 1719 0050 06B0     		add	sp, sp, #24
 1720              		@ sp needed
 1721 0052 80BD     		pop	{r7, pc}
 1722              	.L86:
 1723              		.align	2
 1724              	.L85:
 1725 0054 00000000 		.word	CapSense_CSD_prtCfgTbl
 1726              		.cfi_endproc
 1727              	.LFE51:
 1728              		.size	CapSense_CSD_SetPinDriveMode, .-CapSense_CSD_SetPinDriveMode
 1729              		.section	.text.CapSense_CSD_PreScan,"ax",%progbits
 1730              		.align	2
 1731              		.global	CapSense_CSD_PreScan
 1732              		.code	16
 1733              		.thumb_func
 1734              		.type	CapSense_CSD_PreScan, %function
 1735              	CapSense_CSD_PreScan:
 1736              	.LFB52:
1367:Generated_Source\PSoC4/CapSense_CSD.c **** 
1368:Generated_Source\PSoC4/CapSense_CSD.c **** 
1369:Generated_Source\PSoC4/CapSense_CSD.c **** /*******************************************************************************
1370:Generated_Source\PSoC4/CapSense_CSD.c **** * Function Name: CapSense_CSD_PreScan
1371:Generated_Source\PSoC4/CapSense_CSD.c **** ********************************************************************************
1372:Generated_Source\PSoC4/CapSense_CSD.c **** *
1373:Generated_Source\PSoC4/CapSense_CSD.c **** * Summary:
1374:Generated_Source\PSoC4/CapSense_CSD.c **** *  Sets required settings, enables a sensor, removes Vref from AMUX and starts the
1375:Generated_Source\PSoC4/CapSense_CSD.c **** *  scanning process of the sensor.
1376:Generated_Source\PSoC4/CapSense_CSD.c **** *
1377:Generated_Source\PSoC4/CapSense_CSD.c **** * Parameters:
1378:Generated_Source\PSoC4/CapSense_CSD.c **** *  sensor:  Sensor number.
1379:Generated_Source\PSoC4/CapSense_CSD.c **** *
1380:Generated_Source\PSoC4/CapSense_CSD.c **** * Return:
1381:Generated_Source\PSoC4/CapSense_CSD.c **** *  None
1382:Generated_Source\PSoC4/CapSense_CSD.c **** *
1383:Generated_Source\PSoC4/CapSense_CSD.c **** * Global Variables:
ARM GAS  C:\Users\SHOZO\AppData\Local\Temp\cc2WcnYb.s 			page 56


1384:Generated_Source\PSoC4/CapSense_CSD.c **** * CapSense_CSD_widgetNumber[] - This array contains numbers of widgets for each sensor.
1385:Generated_Source\PSoC4/CapSense_CSD.c **** * CapSense_CSD_widgetResolution[] - Contains the widget resolution.
1386:Generated_Source\PSoC4/CapSense_CSD.c **** *
1387:Generated_Source\PSoC4/CapSense_CSD.c **** * Side Effects:
1388:Generated_Source\PSoC4/CapSense_CSD.c **** *  None
1389:Generated_Source\PSoC4/CapSense_CSD.c **** *
1390:Generated_Source\PSoC4/CapSense_CSD.c **** *******************************************************************************/
1391:Generated_Source\PSoC4/CapSense_CSD.c **** void CapSense_CSD_PreScan(uint32 sensor)
1392:Generated_Source\PSoC4/CapSense_CSD.c **** {
 1737              		.loc 1 1392 0
 1738              		.cfi_startproc
 1739              		@ args = 0, pretend = 0, frame = 24
 1740              		@ frame_needed = 1, uses_anonymous_args = 0
 1741 0000 90B5     		push	{r4, r7, lr}
 1742              		.cfi_def_cfa_offset 12
 1743              		.cfi_offset 4, -12
 1744              		.cfi_offset 7, -8
 1745              		.cfi_offset 14, -4
 1746 0002 87B0     		sub	sp, sp, #28
 1747              		.cfi_def_cfa_offset 40
 1748 0004 00AF     		add	r7, sp, #0
 1749              		.cfi_def_cfa_register 7
 1750 0006 7860     		str	r0, [r7, #4]
1393:Generated_Source\PSoC4/CapSense_CSD.c ****     uint8 widget;
1394:Generated_Source\PSoC4/CapSense_CSD.c ****     uint8 interruptState;
1395:Generated_Source\PSoC4/CapSense_CSD.c ****     uint32 newRegValue;
1396:Generated_Source\PSoC4/CapSense_CSD.c ****     uint32 counterResolution;
1397:Generated_Source\PSoC4/CapSense_CSD.c **** 
1398:Generated_Source\PSoC4/CapSense_CSD.c ****     #if(CapSense_CSD_PRS_OPTIONS == CapSense_CSD__PRS_AUTO)
1399:Generated_Source\PSoC4/CapSense_CSD.c ****         uint8 senseClkDivMath;
1400:Generated_Source\PSoC4/CapSense_CSD.c ****         uint8 sampleClkDivMath;
1401:Generated_Source\PSoC4/CapSense_CSD.c ****     #endif /* (CapSense_CSD_PRS_OPTIONS == CapSense_CSD__PRS_AUTO) */
1402:Generated_Source\PSoC4/CapSense_CSD.c **** 
1403:Generated_Source\PSoC4/CapSense_CSD.c ****     #if ((CapSense_CSD_TUNING_METHOD == CapSense_CSD__TUNING_AUTO) &&\
1404:Generated_Source\PSoC4/CapSense_CSD.c ****          (0 != CapSense_CSD_IS_OVERSAMPLING_EN))
1405:Generated_Source\PSoC4/CapSense_CSD.c ****         uint32 oversamplingFactor;
1406:Generated_Source\PSoC4/CapSense_CSD.c ****     #endif /* ((CapSense_CSD_TUNING_METHOD == CapSense_CSD__TUNING_AUTO) &&\
1407:Generated_Source\PSoC4/CapSense_CSD.c ****                (0 != CapSense_CSD_IS_OVERSAMPLING_EN)) */
1408:Generated_Source\PSoC4/CapSense_CSD.c **** 
1409:Generated_Source\PSoC4/CapSense_CSD.c ****     /* Define widget sensor belongs to */
1410:Generated_Source\PSoC4/CapSense_CSD.c ****     widget = CapSense_CSD_widgetNumber[sensor];
 1751              		.loc 1 1410 0
 1752 0008 1323     		movs	r3, #19
 1753 000a FB18     		adds	r3, r7, r3
 1754 000c 5749     		ldr	r1, .L90
 1755 000e 7A68     		ldr	r2, [r7, #4]
 1756 0010 8A18     		adds	r2, r1, r2
 1757 0012 1278     		ldrb	r2, [r2]
 1758 0014 1A70     		strb	r2, [r3]
1411:Generated_Source\PSoC4/CapSense_CSD.c **** 
1412:Generated_Source\PSoC4/CapSense_CSD.c ****     /* Recalculate Counter Resolution to MSB 16 bits */
1413:Generated_Source\PSoC4/CapSense_CSD.c ****     counterResolution = CapSense_CSD_widgetResolution[widget];
 1759              		.loc 1 1413 0
 1760 0016 1323     		movs	r3, #19
 1761 0018 FB18     		adds	r3, r7, r3
 1762 001a 1A78     		ldrb	r2, [r3]
 1763 001c 544B     		ldr	r3, .L90+4
ARM GAS  C:\Users\SHOZO\AppData\Local\Temp\cc2WcnYb.s 			page 57


 1764 001e 9200     		lsls	r2, r2, #2
 1765 0020 D358     		ldr	r3, [r2, r3]
 1766 0022 FB60     		str	r3, [r7, #12]
1414:Generated_Source\PSoC4/CapSense_CSD.c **** 
1415:Generated_Source\PSoC4/CapSense_CSD.c ****     #if ((CapSense_CSD_TUNING_METHOD == CapSense_CSD__TUNING_AUTO) &&\
1416:Generated_Source\PSoC4/CapSense_CSD.c ****          (0 != CapSense_CSD_IS_OVERSAMPLING_EN))
1417:Generated_Source\PSoC4/CapSense_CSD.c ****         oversamplingFactor = CapSense_CSD_GetBitValue(CapSense_CSD_scanSpeedTbl, sensor);
1418:Generated_Source\PSoC4/CapSense_CSD.c **** 
1419:Generated_Source\PSoC4/CapSense_CSD.c ****         if(counterResolution < CapSense_CSD_RESOLUTION_16_BITS)
1420:Generated_Source\PSoC4/CapSense_CSD.c ****         {
1421:Generated_Source\PSoC4/CapSense_CSD.c ****             counterResolution <<= oversamplingFactor;
1422:Generated_Source\PSoC4/CapSense_CSD.c ****             counterResolution |= (uint32)(CapSense_CSD_RESOLUTION_8_BITS);
1423:Generated_Source\PSoC4/CapSense_CSD.c ****         }
1424:Generated_Source\PSoC4/CapSense_CSD.c ****     #endif /* ((CapSense_CSD_TUNING_METHOD == CapSense_CSD__TUNING_AUTO) &&\
1425:Generated_Source\PSoC4/CapSense_CSD.c ****                (0 != CapSense_CSD_IS_OVERSAMPLING_EN)) */
1426:Generated_Source\PSoC4/CapSense_CSD.c **** 
1427:Generated_Source\PSoC4/CapSense_CSD.c ****     #if (0u != CapSense_CSD_IS_M0S8PERI_BLOCK)
1428:Generated_Source\PSoC4/CapSense_CSD.c ****         CapSense_CSD_SenseClk_Stop();
1429:Generated_Source\PSoC4/CapSense_CSD.c ****         CapSense_CSD_SampleClk_Stop();
1430:Generated_Source\PSoC4/CapSense_CSD.c ****     #endif /* (0u != CapSense_CSD_IS_M0S8PERI_BLOCK) */
1431:Generated_Source\PSoC4/CapSense_CSD.c **** 
1432:Generated_Source\PSoC4/CapSense_CSD.c ****     #if (0u != CapSense_CSD_MULTIPLE_FREQUENCY_SET)
1433:Generated_Source\PSoC4/CapSense_CSD.c ****         CapSense_CSD_SampleClk_SetDividerValue((uint16)CapSense_CSD_sampleClkDividerVal[sensor]);
 1767              		.loc 1 1433 0
 1768 0024 534A     		ldr	r2, .L90+8
 1769 0026 7B68     		ldr	r3, [r7, #4]
 1770 0028 D318     		adds	r3, r2, r3
 1771 002a 1B78     		ldrb	r3, [r3]
 1772 002c 9BB2     		uxth	r3, r3
 1773 002e 013B     		subs	r3, r3, #1
 1774 0030 9BB2     		uxth	r3, r3
 1775 0032 0021     		movs	r1, #0
 1776 0034 1800     		movs	r0, r3
 1777 0036 FFF7FEFF 		bl	CapSense_CSD_SampleClk_SetFractionalDividerRegister
1434:Generated_Source\PSoC4/CapSense_CSD.c ****         CapSense_CSD_SenseClk_SetDividerValue((uint16)CapSense_CSD_senseClkDividerVal[sensor]);
 1778              		.loc 1 1434 0
 1779 003a 4F4A     		ldr	r2, .L90+12
 1780 003c 7B68     		ldr	r3, [r7, #4]
 1781 003e D318     		adds	r3, r2, r3
 1782 0040 1B78     		ldrb	r3, [r3]
 1783 0042 9BB2     		uxth	r3, r3
 1784 0044 013B     		subs	r3, r3, #1
 1785 0046 9BB2     		uxth	r3, r3
 1786 0048 0021     		movs	r1, #0
 1787 004a 1800     		movs	r0, r3
 1788 004c FFF7FEFF 		bl	CapSense_CSD_SenseClk_SetFractionalDividerRegister
1435:Generated_Source\PSoC4/CapSense_CSD.c ****     #else
1436:Generated_Source\PSoC4/CapSense_CSD.c ****         CapSense_CSD_SampleClk_SetDividerValue((uint16)CapSense_CSD_sampleClkDividerVal);
1437:Generated_Source\PSoC4/CapSense_CSD.c ****         CapSense_CSD_SenseClk_SetDividerValue((uint16)CapSense_CSD_senseClkDividerVal);
1438:Generated_Source\PSoC4/CapSense_CSD.c ****     #endif /* (0u != CapSense_CSD_MULTIPLE_FREQUENCY_SET) */
1439:Generated_Source\PSoC4/CapSense_CSD.c **** 
1440:Generated_Source\PSoC4/CapSense_CSD.c ****     #if (0u != CapSense_CSD_IS_M0S8PERI_BLOCK)
1441:Generated_Source\PSoC4/CapSense_CSD.c ****         CapSense_CSD_SampleClk_Start();
1442:Generated_Source\PSoC4/CapSense_CSD.c ****         CapSense_CSD_SenseClk_StartEx(CapSense_CSD_SampleClk__DIV_ID);
1443:Generated_Source\PSoC4/CapSense_CSD.c **** 
1444:Generated_Source\PSoC4/CapSense_CSD.c ****         #if(CapSense_CSD_PRS_OPTIONS == CapSense_CSD__PRS_NONE)
1445:Generated_Source\PSoC4/CapSense_CSD.c ****             CyIntDisable(CapSense_CSD_ISR_NUMBER);
ARM GAS  C:\Users\SHOZO\AppData\Local\Temp\cc2WcnYb.s 			page 58


1446:Generated_Source\PSoC4/CapSense_CSD.c ****             CapSense_CSD_CSD_CNT_REG = CapSense_CSD_ONE_CYCLE;
1447:Generated_Source\PSoC4/CapSense_CSD.c ****             while(0u != (CapSense_CSD_CSD_CNT_REG & CapSense_CSD_RESOLUTION_16_BITS))
1448:Generated_Source\PSoC4/CapSense_CSD.c ****             {
1449:Generated_Source\PSoC4/CapSense_CSD.c ****             /* Wait until scanning is complete */
1450:Generated_Source\PSoC4/CapSense_CSD.c ****             }
1451:Generated_Source\PSoC4/CapSense_CSD.c ****             CapSense_CSD_CSD_INTR_REG = 1u;
1452:Generated_Source\PSoC4/CapSense_CSD.c ****             CyIntClearPending(CapSense_CSD_ISR_NUMBER);
1453:Generated_Source\PSoC4/CapSense_CSD.c ****             CyIntEnable(CapSense_CSD_ISR_NUMBER);
1454:Generated_Source\PSoC4/CapSense_CSD.c ****         #endif /* CapSense_CSD_PRS_OPTIONS == CapSense_CSD__PRS_NONE */
1455:Generated_Source\PSoC4/CapSense_CSD.c ****     #endif /* (0u != CapSense_CSD_IS_M0S8PERI_BLOCK) */
1456:Generated_Source\PSoC4/CapSense_CSD.c **** 
1457:Generated_Source\PSoC4/CapSense_CSD.c **** #if(CapSense_CSD_PRS_OPTIONS != CapSense_CSD__PRS_NONE)
1458:Generated_Source\PSoC4/CapSense_CSD.c **** 
1459:Generated_Source\PSoC4/CapSense_CSD.c ****     #if(CapSense_CSD_TUNING_METHOD == CapSense_CSD__TUNING_AUTO)
1460:Generated_Source\PSoC4/CapSense_CSD.c ****         if(CapSense_CSD_prescalersTuningDone != 0u)
 1789              		.loc 1 1460 0
 1790 0050 4A4B     		ldr	r3, .L90+16
 1791 0052 1B78     		ldrb	r3, [r3]
 1792 0054 002B     		cmp	r3, #0
 1793 0056 43D0     		beq	.L88
1461:Generated_Source\PSoC4/CapSense_CSD.c ****         {
1462:Generated_Source\PSoC4/CapSense_CSD.c ****     #endif /* (CapSense_CSD_TUNING_METHOD == CapSense_CSD__TUNING_AUTO) */
1463:Generated_Source\PSoC4/CapSense_CSD.c **** 
1464:Generated_Source\PSoC4/CapSense_CSD.c ****             CyIntDisable(CapSense_CSD_ISR_NUMBER);
 1794              		.loc 1 1464 0
 1795 0058 0F20     		movs	r0, #15
 1796 005a FFF7FEFF 		bl	CyIntDisable
1465:Generated_Source\PSoC4/CapSense_CSD.c **** 
1466:Generated_Source\PSoC4/CapSense_CSD.c ****             newRegValue = CapSense_CSD_CSD_CFG_REG;
 1797              		.loc 1 1466 0
 1798 005e 484B     		ldr	r3, .L90+20
 1799 0060 1B68     		ldr	r3, [r3]
 1800 0062 7B61     		str	r3, [r7, #20]
1467:Generated_Source\PSoC4/CapSense_CSD.c ****             newRegValue |= CapSense_CSD_CSD_CFG_PRS_SELECT;
 1801              		.loc 1 1467 0
 1802 0064 7B69     		ldr	r3, [r7, #20]
 1803 0066 4022     		movs	r2, #64
 1804 0068 1343     		orrs	r3, r2
 1805 006a 7B61     		str	r3, [r7, #20]
1468:Generated_Source\PSoC4/CapSense_CSD.c **** 
1469:Generated_Source\PSoC4/CapSense_CSD.c ****             #if(CapSense_CSD_PRS_OPTIONS == CapSense_CSD__PRS_AUTO)
1470:Generated_Source\PSoC4/CapSense_CSD.c **** 
1471:Generated_Source\PSoC4/CapSense_CSD.c ****                 newRegValue &= ~(CapSense_CSD_PRS_MODE_MASK);
 1806              		.loc 1 1471 0
 1807 006c 7B69     		ldr	r3, [r7, #20]
 1808 006e 8022     		movs	r2, #128
 1809 0070 9343     		bics	r3, r2
 1810 0072 7B61     		str	r3, [r7, #20]
1472:Generated_Source\PSoC4/CapSense_CSD.c **** 
1473:Generated_Source\PSoC4/CapSense_CSD.c ****                 #if (0u != CapSense_CSD_MULTIPLE_FREQUENCY_SET)
1474:Generated_Source\PSoC4/CapSense_CSD.c ****                     senseClkDivMath = CapSense_CSD_senseClkDividerVal[sensor];
 1811              		.loc 1 1474 0
 1812 0074 0B23     		movs	r3, #11
 1813 0076 FB18     		adds	r3, r7, r3
 1814 0078 3F49     		ldr	r1, .L90+12
 1815 007a 7A68     		ldr	r2, [r7, #4]
 1816 007c 8A18     		adds	r2, r1, r2
ARM GAS  C:\Users\SHOZO\AppData\Local\Temp\cc2WcnYb.s 			page 59


 1817 007e 1278     		ldrb	r2, [r2]
 1818 0080 1A70     		strb	r2, [r3]
1475:Generated_Source\PSoC4/CapSense_CSD.c ****                     sampleClkDivMath = CapSense_CSD_sampleClkDividerVal[sensor];
 1819              		.loc 1 1475 0
 1820 0082 0A23     		movs	r3, #10
 1821 0084 FB18     		adds	r3, r7, r3
 1822 0086 3B49     		ldr	r1, .L90+8
 1823 0088 7A68     		ldr	r2, [r7, #4]
 1824 008a 8A18     		adds	r2, r1, r2
 1825 008c 1278     		ldrb	r2, [r2]
 1826 008e 1A70     		strb	r2, [r3]
1476:Generated_Source\PSoC4/CapSense_CSD.c ****                 #else
1477:Generated_Source\PSoC4/CapSense_CSD.c ****                     senseClkDivMath = CapSense_CSD_senseClkDividerVal;
1478:Generated_Source\PSoC4/CapSense_CSD.c ****                     sampleClkDivMath = CapSense_CSD_sampleClkDividerVal;
1479:Generated_Source\PSoC4/CapSense_CSD.c ****                 #endif /* ( CapSense_CSD_MULTIPLE_FREQUENCY_SET) */
1480:Generated_Source\PSoC4/CapSense_CSD.c **** 
1481:Generated_Source\PSoC4/CapSense_CSD.c ****                 #if(0u == CapSense_CSD_IS_M0S8PERI_BLOCK)
1482:Generated_Source\PSoC4/CapSense_CSD.c ****                     senseClkDivMath *= sampleClkDivMath;
 1827              		.loc 1 1482 0
 1828 0090 0B23     		movs	r3, #11
 1829 0092 FB18     		adds	r3, r7, r3
 1830 0094 0B22     		movs	r2, #11
 1831 0096 BA18     		adds	r2, r7, r2
 1832 0098 0A21     		movs	r1, #10
 1833 009a 7918     		adds	r1, r7, r1
 1834 009c 1278     		ldrb	r2, [r2]
 1835 009e 0978     		ldrb	r1, [r1]
 1836 00a0 4A43     		muls	r2, r1
 1837 00a2 1A70     		strb	r2, [r3]
1483:Generated_Source\PSoC4/CapSense_CSD.c ****                 #endif /* (0u == CapSense_CSD_IS_M0S8PERI_BLOCK) */
1484:Generated_Source\PSoC4/CapSense_CSD.c **** 
1485:Generated_Source\PSoC4/CapSense_CSD.c ****                 if((senseClkDivMath * CapSense_CSD_RESOLUTION_12_BITS) <
 1838              		.loc 1 1485 0
 1839 00a4 0B23     		movs	r3, #11
 1840 00a6 FB18     		adds	r3, r7, r3
 1841 00a8 1A78     		ldrb	r2, [r3]
 1842 00aa 1300     		movs	r3, r2
 1843 00ac 1B03     		lsls	r3, r3, #12
 1844 00ae 9B1A     		subs	r3, r3, r2
 1845 00b0 1B04     		lsls	r3, r3, #16
 1846 00b2 1800     		movs	r0, r3
1486:Generated_Source\PSoC4/CapSense_CSD.c ****                    (sampleClkDivMath * CapSense_CSD_widgetResolution[widget]))
 1847              		.loc 1 1486 0
 1848 00b4 0A23     		movs	r3, #10
 1849 00b6 FB18     		adds	r3, r7, r3
 1850 00b8 1B78     		ldrb	r3, [r3]
 1851 00ba 1322     		movs	r2, #19
 1852 00bc BA18     		adds	r2, r7, r2
 1853 00be 1178     		ldrb	r1, [r2]
 1854 00c0 2B4A     		ldr	r2, .L90+4
 1855 00c2 8900     		lsls	r1, r1, #2
 1856 00c4 8A58     		ldr	r2, [r1, r2]
 1857 00c6 5343     		muls	r3, r2
1485:Generated_Source\PSoC4/CapSense_CSD.c ****                    (sampleClkDivMath * CapSense_CSD_widgetResolution[widget]))
 1858              		.loc 1 1485 0
 1859 00c8 9842     		cmp	r0, r3
 1860 00ca 03D2     		bcs	.L89
ARM GAS  C:\Users\SHOZO\AppData\Local\Temp\cc2WcnYb.s 			page 60


1487:Generated_Source\PSoC4/CapSense_CSD.c ****                 {
1488:Generated_Source\PSoC4/CapSense_CSD.c ****                     newRegValue |= CapSense_CSD_CSD_PRS_12_BIT;
 1861              		.loc 1 1488 0
 1862 00cc 7B69     		ldr	r3, [r7, #20]
 1863 00ce 8022     		movs	r2, #128
 1864 00d0 1343     		orrs	r3, r2
 1865 00d2 7B61     		str	r3, [r7, #20]
 1866              	.L89:
1489:Generated_Source\PSoC4/CapSense_CSD.c ****                 }
1490:Generated_Source\PSoC4/CapSense_CSD.c ****             #endif /* (CapSense_CSD_PRS_OPTIONS == CapSense_CSD__PRS_AUTO) */
1491:Generated_Source\PSoC4/CapSense_CSD.c **** 
1492:Generated_Source\PSoC4/CapSense_CSD.c ****             CapSense_CSD_CSD_CFG_REG = newRegValue;
 1867              		.loc 1 1492 0
 1868 00d4 2A4B     		ldr	r3, .L90+20
 1869 00d6 7A69     		ldr	r2, [r7, #20]
 1870 00d8 1A60     		str	r2, [r3]
1493:Generated_Source\PSoC4/CapSense_CSD.c **** 
1494:Generated_Source\PSoC4/CapSense_CSD.c ****             CyIntEnable(CapSense_CSD_ISR_NUMBER);
 1871              		.loc 1 1494 0
 1872 00da 0F20     		movs	r0, #15
 1873 00dc FFF7FEFF 		bl	CyIntEnable
 1874              	.L88:
1495:Generated_Source\PSoC4/CapSense_CSD.c **** 
1496:Generated_Source\PSoC4/CapSense_CSD.c ****     #if(CapSense_CSD_TUNING_METHOD == CapSense_CSD__TUNING_AUTO)
1497:Generated_Source\PSoC4/CapSense_CSD.c ****         }
1498:Generated_Source\PSoC4/CapSense_CSD.c ****     #endif /* (CapSense_CSD_PRS_OPTIONS != CapSense_CSD__PRS_NONE) */
1499:Generated_Source\PSoC4/CapSense_CSD.c **** 
1500:Generated_Source\PSoC4/CapSense_CSD.c **** #endif /* (CapSense_CSD_PRS_OPTIONS == CapSense_CSD__PRS_NONE) */
1501:Generated_Source\PSoC4/CapSense_CSD.c **** 
1502:Generated_Source\PSoC4/CapSense_CSD.c ****     /* Set Idac Value */
1503:Generated_Source\PSoC4/CapSense_CSD.c ****     CyIntDisable(CapSense_CSD_ISR_NUMBER);
 1875              		.loc 1 1503 0
 1876 00e0 0F20     		movs	r0, #15
 1877 00e2 FFF7FEFF 		bl	CyIntDisable
1504:Generated_Source\PSoC4/CapSense_CSD.c ****     newRegValue = CapSense_CSD_CSD_IDAC_REG;
 1878              		.loc 1 1504 0
 1879 00e6 274B     		ldr	r3, .L90+24
 1880 00e8 1B68     		ldr	r3, [r3]
 1881 00ea 7B61     		str	r3, [r7, #20]
1505:Generated_Source\PSoC4/CapSense_CSD.c **** 
1506:Generated_Source\PSoC4/CapSense_CSD.c **** #if (CapSense_CSD_IDAC_CNT == 1u)
1507:Generated_Source\PSoC4/CapSense_CSD.c ****     newRegValue &= ~(CapSense_CSD_CSD_IDAC1_DATA_MASK);
1508:Generated_Source\PSoC4/CapSense_CSD.c ****     newRegValue |= CapSense_CSD_modulationIDAC[sensor];
1509:Generated_Source\PSoC4/CapSense_CSD.c **** #else
1510:Generated_Source\PSoC4/CapSense_CSD.c ****     newRegValue &= ~(CapSense_CSD_CSD_IDAC1_DATA_MASK | CapSense_CSD_CSD_IDAC2_DATA_MASK);
 1882              		.loc 1 1510 0
 1883 00ec 7B69     		ldr	r3, [r7, #20]
 1884 00ee 264A     		ldr	r2, .L90+28
 1885 00f0 1340     		ands	r3, r2
 1886 00f2 7B61     		str	r3, [r7, #20]
1511:Generated_Source\PSoC4/CapSense_CSD.c ****     newRegValue |= (CapSense_CSD_modulationIDAC[sensor] |
 1887              		.loc 1 1511 0
 1888 00f4 254A     		ldr	r2, .L90+32
 1889 00f6 7B68     		ldr	r3, [r7, #4]
 1890 00f8 D318     		adds	r3, r2, r3
 1891 00fa 1B78     		ldrb	r3, [r3]
 1892 00fc 1900     		movs	r1, r3
ARM GAS  C:\Users\SHOZO\AppData\Local\Temp\cc2WcnYb.s 			page 61


1512:Generated_Source\PSoC4/CapSense_CSD.c ****                             (uint32)((uint32)CapSense_CSD_compensationIDAC[sensor] <<
 1893              		.loc 1 1512 0
 1894 00fe 244A     		ldr	r2, .L90+36
 1895 0100 7B68     		ldr	r3, [r7, #4]
 1896 0102 D318     		adds	r3, r2, r3
 1897 0104 1B78     		ldrb	r3, [r3]
 1898 0106 1B04     		lsls	r3, r3, #16
1511:Generated_Source\PSoC4/CapSense_CSD.c ****     newRegValue |= (CapSense_CSD_modulationIDAC[sensor] |
 1899              		.loc 1 1511 0
 1900 0108 0B43     		orrs	r3, r1
 1901 010a 7A69     		ldr	r2, [r7, #20]
 1902 010c 1343     		orrs	r3, r2
 1903 010e 7B61     		str	r3, [r7, #20]
1513:Generated_Source\PSoC4/CapSense_CSD.c ****                             CapSense_CSD_CSD_IDAC2_DATA_OFFSET));
1514:Generated_Source\PSoC4/CapSense_CSD.c **** #endif /* (CapSense_CSD_IDAC_CNT == 1u) */
1515:Generated_Source\PSoC4/CapSense_CSD.c **** 
1516:Generated_Source\PSoC4/CapSense_CSD.c ****     CapSense_CSD_CSD_IDAC_REG = newRegValue;
 1904              		.loc 1 1516 0
 1905 0110 1C4B     		ldr	r3, .L90+24
 1906 0112 7A69     		ldr	r2, [r7, #20]
 1907 0114 1A60     		str	r2, [r3]
1517:Generated_Source\PSoC4/CapSense_CSD.c **** 
1518:Generated_Source\PSoC4/CapSense_CSD.c **** #if(CapSense_CSD_CMOD_PREGARGE_OPTION == CapSense_CSD__CAPPRIOBUF)
1519:Generated_Source\PSoC4/CapSense_CSD.c ****     newRegValue = CapSense_CSD_CMOD_CONNECTION_REG;
1520:Generated_Source\PSoC4/CapSense_CSD.c ****     newRegValue &= ~(CapSense_CSD_CSD_CMOD_CONNECTION_MASK);
1521:Generated_Source\PSoC4/CapSense_CSD.c ****     newRegValue |= CapSense_CSD_CSD_CMOD_TO_AMUXBUS_A;
1522:Generated_Source\PSoC4/CapSense_CSD.c ****     CapSense_CSD_CMOD_CONNECTION_REG = newRegValue;
1523:Generated_Source\PSoC4/CapSense_CSD.c **** 
1524:Generated_Source\PSoC4/CapSense_CSD.c ****     newRegValue = CapSense_CSD_CMOD_PORT_PC_REG;
1525:Generated_Source\PSoC4/CapSense_CSD.c ****     newRegValue &= ~(CapSense_CSD_CSD_CMOD_PC_MASK);
1526:Generated_Source\PSoC4/CapSense_CSD.c ****     newRegValue |= CapSense_CSD_CMOD_PC_HIGH_Z_MODE;
1527:Generated_Source\PSoC4/CapSense_CSD.c ****     CapSense_CSD_CMOD_PORT_PC_REG = newRegValue;
1528:Generated_Source\PSoC4/CapSense_CSD.c **** #endif /* (CapSense_CSD_CMOD_PREGARGE_OPTION == CapSense_CSD__CAPPRIOBUF) */
1529:Generated_Source\PSoC4/CapSense_CSD.c **** 
1530:Generated_Source\PSoC4/CapSense_CSD.c ****     /* Disconnect Vref Buffer from AMUX */
1531:Generated_Source\PSoC4/CapSense_CSD.c ****     newRegValue = CapSense_CSD_CSD_CFG_REG;
 1908              		.loc 1 1531 0
 1909 0116 1A4B     		ldr	r3, .L90+20
 1910 0118 1B68     		ldr	r3, [r3]
 1911 011a 7B61     		str	r3, [r7, #20]
1532:Generated_Source\PSoC4/CapSense_CSD.c ****     newRegValue &= ~(CapSense_CSD_PRECHARGE_CONFIG_MASK);
 1912              		.loc 1 1532 0
 1913 011c 7B69     		ldr	r3, [r7, #20]
 1914 011e 1D4A     		ldr	r2, .L90+40
 1915 0120 1340     		ands	r3, r2
 1916 0122 7B61     		str	r3, [r7, #20]
1533:Generated_Source\PSoC4/CapSense_CSD.c ****     newRegValue |= CapSense_CSD_CTANK_PRECHARGE_CONFIG;
 1917              		.loc 1 1533 0
 1918 0124 7B69     		ldr	r3, [r7, #20]
 1919 0126 1C4A     		ldr	r2, .L90+44
 1920 0128 1343     		orrs	r3, r2
 1921 012a 7B61     		str	r3, [r7, #20]
1534:Generated_Source\PSoC4/CapSense_CSD.c **** 
1535:Generated_Source\PSoC4/CapSense_CSD.c ****     CyIntEnable(CapSense_CSD_ISR_NUMBER);
 1922              		.loc 1 1535 0
 1923 012c 0F20     		movs	r0, #15
 1924 012e FFF7FEFF 		bl	CyIntEnable
ARM GAS  C:\Users\SHOZO\AppData\Local\Temp\cc2WcnYb.s 			page 62


1536:Generated_Source\PSoC4/CapSense_CSD.c **** 
1537:Generated_Source\PSoC4/CapSense_CSD.c ****     /* Enable Sensor */
1538:Generated_Source\PSoC4/CapSense_CSD.c ****     CapSense_CSD_EnableScanSlot(sensor);
 1925              		.loc 1 1538 0
 1926 0132 7B68     		ldr	r3, [r7, #4]
 1927 0134 1800     		movs	r0, r3
 1928 0136 FFF7FEFF 		bl	CapSense_CSD_EnableSensor
1539:Generated_Source\PSoC4/CapSense_CSD.c **** 
1540:Generated_Source\PSoC4/CapSense_CSD.c ****     interruptState = CyEnterCriticalSection();
 1929              		.loc 1 1540 0
 1930 013a 0923     		movs	r3, #9
 1931 013c FC18     		adds	r4, r7, r3
 1932 013e FFF7FEFF 		bl	CyEnterCriticalSection
 1933 0142 0300     		movs	r3, r0
 1934 0144 2370     		strb	r3, [r4]
1541:Generated_Source\PSoC4/CapSense_CSD.c ****     CapSense_CSD_CSD_CFG_REG = newRegValue;
 1935              		.loc 1 1541 0
 1936 0146 0E4B     		ldr	r3, .L90+20
 1937 0148 7A69     		ldr	r2, [r7, #20]
 1938 014a 1A60     		str	r2, [r3]
1542:Generated_Source\PSoC4/CapSense_CSD.c **** 
1543:Generated_Source\PSoC4/CapSense_CSD.c ****     /* `#START CapSense_CSD_PreSettlingDelay_Debug` */
1544:Generated_Source\PSoC4/CapSense_CSD.c **** 
1545:Generated_Source\PSoC4/CapSense_CSD.c ****     /* `#END` */
1546:Generated_Source\PSoC4/CapSense_CSD.c **** 
1547:Generated_Source\PSoC4/CapSense_CSD.c **** #ifdef CapSense_CSD_PRE_SCAN_PRE_SETTLING_DELAY_DEBUG_CALLBACK
1548:Generated_Source\PSoC4/CapSense_CSD.c ****     CapSense_CSD_PreScan_Pre_SettlingDelay_Debug_Callback();
1549:Generated_Source\PSoC4/CapSense_CSD.c **** #endif /* CapSense_CSD_PRE_SCAN_PRE_SETTLING_DELAY_DEBUG_CALLBACK */
1550:Generated_Source\PSoC4/CapSense_CSD.c **** 
1551:Generated_Source\PSoC4/CapSense_CSD.c ****     CyDelayCycles(CapSense_CSD_GLITCH_ELIMINATION_CYCLES);
 1939              		.loc 1 1551 0
 1940 014c 0020     		movs	r0, #0
 1941 014e FFF7FEFF 		bl	CyDelayCycles
1552:Generated_Source\PSoC4/CapSense_CSD.c **** 
1553:Generated_Source\PSoC4/CapSense_CSD.c ****     /* `#START CapSense_CSD_PreScan_Debug` */
1554:Generated_Source\PSoC4/CapSense_CSD.c **** 
1555:Generated_Source\PSoC4/CapSense_CSD.c ****     /* `#END` */
1556:Generated_Source\PSoC4/CapSense_CSD.c **** 
1557:Generated_Source\PSoC4/CapSense_CSD.c **** #ifdef CapSense_CSD_PRE_SCAN_DEBUG_CALLBACK
1558:Generated_Source\PSoC4/CapSense_CSD.c ****     CapSense_CSD_PreScan_Debug_Callback();
1559:Generated_Source\PSoC4/CapSense_CSD.c **** #endif /* CapSense_CSD_PRE_SCAN_DEBUG_CALLBACK */
1560:Generated_Source\PSoC4/CapSense_CSD.c **** 
1561:Generated_Source\PSoC4/CapSense_CSD.c ****     CapSense_CSD_CSD_CNT_REG = counterResolution;
 1942              		.loc 1 1561 0
 1943 0152 124B     		ldr	r3, .L90+48
 1944 0154 FA68     		ldr	r2, [r7, #12]
 1945 0156 1A60     		str	r2, [r3]
1562:Generated_Source\PSoC4/CapSense_CSD.c ****     CyExitCriticalSection(interruptState);
 1946              		.loc 1 1562 0
 1947 0158 0923     		movs	r3, #9
 1948 015a FB18     		adds	r3, r7, r3
 1949 015c 1B78     		ldrb	r3, [r3]
 1950 015e 1800     		movs	r0, r3
 1951 0160 FFF7FEFF 		bl	CyExitCriticalSection
1563:Generated_Source\PSoC4/CapSense_CSD.c **** }
 1952              		.loc 1 1563 0
 1953 0164 C046     		nop
ARM GAS  C:\Users\SHOZO\AppData\Local\Temp\cc2WcnYb.s 			page 63


 1954 0166 BD46     		mov	sp, r7
 1955 0168 07B0     		add	sp, sp, #28
 1956              		@ sp needed
 1957 016a 90BD     		pop	{r4, r7, pc}
 1958              	.L91:
 1959              		.align	2
 1960              	.L90:
 1961 016c 00000000 		.word	CapSense_CSD_widgetNumber
 1962 0170 00000000 		.word	CapSense_CSD_widgetResolution
 1963 0174 00000000 		.word	CapSense_CSD_sampleClkDividerVal
 1964 0178 00000000 		.word	CapSense_CSD_senseClkDividerVal
 1965 017c 00000000 		.word	CapSense_CSD_prescalersTuningDone
 1966 0180 04000840 		.word	1074266116
 1967 0184 08000840 		.word	1074266120
 1968 0188 00FF80FF 		.word	-8323328
 1969 018c 00000000 		.word	CapSense_CSD_modulationIDAC
 1970 0190 00000000 		.word	CapSense_CSD_compensationIDAC
 1971 0194 FF1FDFFF 		.word	-2154497
 1972 0198 20202000 		.word	2105376
 1973 019c 0C000840 		.word	1074266124
 1974              		.cfi_endproc
 1975              	.LFE52:
 1976              		.size	CapSense_CSD_PreScan, .-CapSense_CSD_PreScan
 1977              		.section	.text.CapSense_CSD_PostScan,"ax",%progbits
 1978              		.align	2
 1979              		.global	CapSense_CSD_PostScan
 1980              		.code	16
 1981              		.thumb_func
 1982              		.type	CapSense_CSD_PostScan, %function
 1983              	CapSense_CSD_PostScan:
 1984              	.LFB53:
1564:Generated_Source\PSoC4/CapSense_CSD.c **** 
1565:Generated_Source\PSoC4/CapSense_CSD.c **** 
1566:Generated_Source\PSoC4/CapSense_CSD.c **** /*******************************************************************************
1567:Generated_Source\PSoC4/CapSense_CSD.c **** * Function Name: CapSense_CSD_PostScan
1568:Generated_Source\PSoC4/CapSense_CSD.c **** ********************************************************************************
1569:Generated_Source\PSoC4/CapSense_CSD.c **** *
1570:Generated_Source\PSoC4/CapSense_CSD.c **** * Summary:
1571:Generated_Source\PSoC4/CapSense_CSD.c **** *  Stores the results of measurement in the CapSense_CSD_sensorRaw[] array,
1572:Generated_Source\PSoC4/CapSense_CSD.c **** *  sets the scanning sensor in the non-sampling state, turns off Idac(Current Source IDAC),
1573:Generated_Source\PSoC4/CapSense_CSD.c **** *  disconnects the IDAC(Sink mode), and applies Vref on AMUX.
1574:Generated_Source\PSoC4/CapSense_CSD.c **** *
1575:Generated_Source\PSoC4/CapSense_CSD.c **** * Parameters:
1576:Generated_Source\PSoC4/CapSense_CSD.c **** *  sensor:  Sensor number.
1577:Generated_Source\PSoC4/CapSense_CSD.c **** *
1578:Generated_Source\PSoC4/CapSense_CSD.c **** * Return:
1579:Generated_Source\PSoC4/CapSense_CSD.c **** *  None
1580:Generated_Source\PSoC4/CapSense_CSD.c **** *
1581:Generated_Source\PSoC4/CapSense_CSD.c **** * Global Variables:
1582:Generated_Source\PSoC4/CapSense_CSD.c **** *  CapSense_CSD_sensorRaw[] - used to store sensors raw data.
1583:Generated_Source\PSoC4/CapSense_CSD.c **** *
1584:Generated_Source\PSoC4/CapSense_CSD.c **** * Side Effects:
1585:Generated_Source\PSoC4/CapSense_CSD.c **** *  None
1586:Generated_Source\PSoC4/CapSense_CSD.c **** *
1587:Generated_Source\PSoC4/CapSense_CSD.c **** *******************************************************************************/
1588:Generated_Source\PSoC4/CapSense_CSD.c **** void CapSense_CSD_PostScan(uint32 sensor)
1589:Generated_Source\PSoC4/CapSense_CSD.c **** {
ARM GAS  C:\Users\SHOZO\AppData\Local\Temp\cc2WcnYb.s 			page 64


 1985              		.loc 1 1589 0
 1986              		.cfi_startproc
 1987              		@ args = 0, pretend = 0, frame = 16
 1988              		@ frame_needed = 1, uses_anonymous_args = 0
 1989 0000 80B5     		push	{r7, lr}
 1990              		.cfi_def_cfa_offset 8
 1991              		.cfi_offset 7, -8
 1992              		.cfi_offset 14, -4
 1993 0002 84B0     		sub	sp, sp, #16
 1994              		.cfi_def_cfa_offset 24
 1995 0004 00AF     		add	r7, sp, #0
 1996              		.cfi_def_cfa_register 7
 1997 0006 7860     		str	r0, [r7, #4]
1590:Generated_Source\PSoC4/CapSense_CSD.c ****     uint32 newRegValue;
1591:Generated_Source\PSoC4/CapSense_CSD.c **** #if ((CapSense_CSD_TUNING_METHOD == CapSense_CSD__TUNING_AUTO) &&\
1592:Generated_Source\PSoC4/CapSense_CSD.c ****      (0 != CapSense_CSD_IS_OVERSAMPLING_EN))
1593:Generated_Source\PSoC4/CapSense_CSD.c ****     uint32 oversamplingFactor;
1594:Generated_Source\PSoC4/CapSense_CSD.c ****     uint32 widget;
1595:Generated_Source\PSoC4/CapSense_CSD.c **** #endif /* ((CapSense_CSD_TUNING_METHOD == CapSense_CSD__TUNING_AUTO) &&\
1596:Generated_Source\PSoC4/CapSense_CSD.c ****            (0 != CapSense_CSD_IS_OVERSAMPLING_EN)) */
1597:Generated_Source\PSoC4/CapSense_CSD.c **** 
1598:Generated_Source\PSoC4/CapSense_CSD.c ****     /* `#START CapSense_CSD_PostScan_Debug` */
1599:Generated_Source\PSoC4/CapSense_CSD.c **** 
1600:Generated_Source\PSoC4/CapSense_CSD.c ****     /* `#END` */
1601:Generated_Source\PSoC4/CapSense_CSD.c **** 
1602:Generated_Source\PSoC4/CapSense_CSD.c **** #ifdef CapSense_CSD_POST_SCAN_DEBUG_CALLBACK
1603:Generated_Source\PSoC4/CapSense_CSD.c ****     CapSense_CSD_PostScan_Debug_Callback();
1604:Generated_Source\PSoC4/CapSense_CSD.c **** #endif /* CapSense_CSD_POST_SCAN_DEBUG_Callback */
1605:Generated_Source\PSoC4/CapSense_CSD.c **** 
1606:Generated_Source\PSoC4/CapSense_CSD.c ****     /* Read SlotResult from Raw Counter */
1607:Generated_Source\PSoC4/CapSense_CSD.c ****     CapSense_CSD_sensorRaw[sensor]  = (uint16)CapSense_CSD_CSD_CNT_REG;
 1998              		.loc 1 1607 0
 1999 0008 144B     		ldr	r3, .L93
 2000 000a 1B68     		ldr	r3, [r3]
 2001 000c 99B2     		uxth	r1, r3
 2002 000e 144B     		ldr	r3, .L93+4
 2003 0010 7A68     		ldr	r2, [r7, #4]
 2004 0012 5200     		lsls	r2, r2, #1
 2005 0014 D152     		strh	r1, [r2, r3]
1608:Generated_Source\PSoC4/CapSense_CSD.c **** 
1609:Generated_Source\PSoC4/CapSense_CSD.c **** #if ((CapSense_CSD_TUNING_METHOD == CapSense_CSD__TUNING_AUTO) &&\
1610:Generated_Source\PSoC4/CapSense_CSD.c ****      (0 != CapSense_CSD_IS_OVERSAMPLING_EN))
1611:Generated_Source\PSoC4/CapSense_CSD.c ****     widget = CapSense_CSD_widgetNumber[sensor];
1612:Generated_Source\PSoC4/CapSense_CSD.c ****     if(CapSense_CSD_widgetResolution[widget] < CapSense_CSD_RESOLUTION_16_BITS)
1613:Generated_Source\PSoC4/CapSense_CSD.c ****     {
1614:Generated_Source\PSoC4/CapSense_CSD.c ****         oversamplingFactor = CapSense_CSD_GetBitValue(CapSense_CSD_scanSpeedTbl, sensor);
1615:Generated_Source\PSoC4/CapSense_CSD.c ****         CapSense_CSD_sensorRaw[sensor] >>= oversamplingFactor;
1616:Generated_Source\PSoC4/CapSense_CSD.c ****     }
1617:Generated_Source\PSoC4/CapSense_CSD.c **** #endif /* ((CapSense_CSD_TUNING_METHOD == CapSense_CSD__TUNING_AUTO) &&\
1618:Generated_Source\PSoC4/CapSense_CSD.c ****            (0 != CapSense_CSD_IS_OVERSAMPLING_EN)) */
1619:Generated_Source\PSoC4/CapSense_CSD.c **** 
1620:Generated_Source\PSoC4/CapSense_CSD.c ****     /* Disable Sensor */
1621:Generated_Source\PSoC4/CapSense_CSD.c ****     CapSense_CSD_DisableScanSlot(sensor);
 2006              		.loc 1 1621 0
 2007 0016 7B68     		ldr	r3, [r7, #4]
 2008 0018 1800     		movs	r0, r3
 2009 001a FFF7FEFF 		bl	CapSense_CSD_DisableSensor
ARM GAS  C:\Users\SHOZO\AppData\Local\Temp\cc2WcnYb.s 			page 65


1622:Generated_Source\PSoC4/CapSense_CSD.c **** 
1623:Generated_Source\PSoC4/CapSense_CSD.c ****     CyIntDisable(CapSense_CSD_ISR_NUMBER);
 2010              		.loc 1 1623 0
 2011 001e 0F20     		movs	r0, #15
 2012 0020 FFF7FEFF 		bl	CyIntDisable
1624:Generated_Source\PSoC4/CapSense_CSD.c **** 
1625:Generated_Source\PSoC4/CapSense_CSD.c **** #if(CapSense_CSD_CMOD_PREGARGE_OPTION == CapSense_CSD__CAPPRIOBUF)
1626:Generated_Source\PSoC4/CapSense_CSD.c ****     newRegValue = CapSense_CSD_CMOD_CONNECTION_REG;
1627:Generated_Source\PSoC4/CapSense_CSD.c ****     newRegValue &= ~(CapSense_CSD_CSD_CMOD_CONNECTION_MASK);
1628:Generated_Source\PSoC4/CapSense_CSD.c ****     newRegValue |= CapSense_CSD_CSD_CMOD_TO_AMUXBUS_B;
1629:Generated_Source\PSoC4/CapSense_CSD.c ****     CapSense_CSD_CMOD_CONNECTION_REG = newRegValue;
1630:Generated_Source\PSoC4/CapSense_CSD.c **** 
1631:Generated_Source\PSoC4/CapSense_CSD.c ****     newRegValue = CapSense_CSD_CMOD_PORT_PC_REG;
1632:Generated_Source\PSoC4/CapSense_CSD.c ****     newRegValue &= ~(CapSense_CSD_CSD_CMOD_PC_MASK);
1633:Generated_Source\PSoC4/CapSense_CSD.c ****     newRegValue |= CapSense_CSD_CMOD_PC_STRONG_MODE;
1634:Generated_Source\PSoC4/CapSense_CSD.c ****     CapSense_CSD_CMOD_PORT_PC_REG = newRegValue;
1635:Generated_Source\PSoC4/CapSense_CSD.c **** 
1636:Generated_Source\PSoC4/CapSense_CSD.c ****     newRegValue = CapSense_CSD_CMOD_PORT_DR_REG;
1637:Generated_Source\PSoC4/CapSense_CSD.c ****     newRegValue &= ~(CapSense_CSD_CMOD_DR_MASK);
1638:Generated_Source\PSoC4/CapSense_CSD.c ****     newRegValue |= CapSense_CSD_CMOD_DR_CONFIG;
1639:Generated_Source\PSoC4/CapSense_CSD.c ****     CapSense_CSD_CMOD_PORT_DR_REG = newRegValue;
1640:Generated_Source\PSoC4/CapSense_CSD.c **** #endif /* (CapSense_CSD_CMOD_PREGARGE_OPTION == CapSense_CSD__CAPPRIOBUF) */
1641:Generated_Source\PSoC4/CapSense_CSD.c **** 
1642:Generated_Source\PSoC4/CapSense_CSD.c ****     /* Connect Vref Buffer to AMUX bus  */
1643:Generated_Source\PSoC4/CapSense_CSD.c ****     newRegValue = CapSense_CSD_CSD_CFG_REG;
 2013              		.loc 1 1643 0
 2014 0024 0F4B     		ldr	r3, .L93+8
 2015 0026 1B68     		ldr	r3, [r3]
 2016 0028 FB60     		str	r3, [r7, #12]
1644:Generated_Source\PSoC4/CapSense_CSD.c ****     newRegValue &= ~(CapSense_CSD_PRECHARGE_CONFIG_MASK);
 2017              		.loc 1 1644 0
 2018 002a FB68     		ldr	r3, [r7, #12]
 2019 002c 0E4A     		ldr	r2, .L93+12
 2020 002e 1340     		ands	r3, r2
 2021 0030 FB60     		str	r3, [r7, #12]
1645:Generated_Source\PSoC4/CapSense_CSD.c ****     newRegValue |= CapSense_CSD_CMOD_PRECHARGE_CONFIG;
 2022              		.loc 1 1645 0
 2023 0032 FB68     		ldr	r3, [r7, #12]
 2024 0034 A022     		movs	r2, #160
 2025 0036 1202     		lsls	r2, r2, #8
 2026 0038 1343     		orrs	r3, r2
 2027 003a FB60     		str	r3, [r7, #12]
1646:Generated_Source\PSoC4/CapSense_CSD.c ****     CapSense_CSD_CSD_CFG_REG = newRegValue;
 2028              		.loc 1 1646 0
 2029 003c 094B     		ldr	r3, .L93+8
 2030 003e FA68     		ldr	r2, [r7, #12]
 2031 0040 1A60     		str	r2, [r3]
1647:Generated_Source\PSoC4/CapSense_CSD.c **** 
1648:Generated_Source\PSoC4/CapSense_CSD.c ****     /* Set Idac Value = 0 */
1649:Generated_Source\PSoC4/CapSense_CSD.c **** #if (CapSense_CSD_IDAC_CNT == 1u)
1650:Generated_Source\PSoC4/CapSense_CSD.c ****     CapSense_CSD_CSD_IDAC_REG &= ~(CapSense_CSD_CSD_IDAC1_DATA_MASK);
1651:Generated_Source\PSoC4/CapSense_CSD.c **** #else
1652:Generated_Source\PSoC4/CapSense_CSD.c ****     CapSense_CSD_CSD_IDAC_REG &= ~(CapSense_CSD_CSD_IDAC1_DATA_MASK | CapSense_CSD_CSD_IDAC2_DATA_M
 2032              		.loc 1 1652 0
 2033 0042 0A4B     		ldr	r3, .L93+16
 2034 0044 094A     		ldr	r2, .L93+16
 2035 0046 1268     		ldr	r2, [r2]
ARM GAS  C:\Users\SHOZO\AppData\Local\Temp\cc2WcnYb.s 			page 66


 2036 0048 0949     		ldr	r1, .L93+20
 2037 004a 0A40     		ands	r2, r1
 2038 004c 1A60     		str	r2, [r3]
1653:Generated_Source\PSoC4/CapSense_CSD.c **** #endif /* (CapSense_CSD_IDAC_CNT == 1u) */
1654:Generated_Source\PSoC4/CapSense_CSD.c **** 
1655:Generated_Source\PSoC4/CapSense_CSD.c ****     CyIntEnable(CapSense_CSD_ISR_NUMBER);
 2039              		.loc 1 1655 0
 2040 004e 0F20     		movs	r0, #15
 2041 0050 FFF7FEFF 		bl	CyIntEnable
1656:Generated_Source\PSoC4/CapSense_CSD.c **** }
 2042              		.loc 1 1656 0
 2043 0054 C046     		nop
 2044 0056 BD46     		mov	sp, r7
 2045 0058 04B0     		add	sp, sp, #16
 2046              		@ sp needed
 2047 005a 80BD     		pop	{r7, pc}
 2048              	.L94:
 2049              		.align	2
 2050              	.L93:
 2051 005c 0C000840 		.word	1074266124
 2052 0060 00000000 		.word	CapSense_CSD_sensorRaw
 2053 0064 04000840 		.word	1074266116
 2054 0068 FF1FDFFF 		.word	-2154497
 2055 006c 08000840 		.word	1074266120
 2056 0070 00FF80FF 		.word	-8323328
 2057              		.cfi_endproc
 2058              	.LFE53:
 2059              		.size	CapSense_CSD_PostScan, .-CapSense_CSD_PostScan
 2060              		.section	.text.CapSense_CSD_EnableShieldElectrode,"ax",%progbits
 2061              		.align	2
 2062              		.global	CapSense_CSD_EnableShieldElectrode
 2063              		.code	16
 2064              		.thumb_func
 2065              		.type	CapSense_CSD_EnableShieldElectrode, %function
 2066              	CapSense_CSD_EnableShieldElectrode:
 2067              	.LFB54:
1657:Generated_Source\PSoC4/CapSense_CSD.c **** 
1658:Generated_Source\PSoC4/CapSense_CSD.c **** 
1659:Generated_Source\PSoC4/CapSense_CSD.c **** /*******************************************************************************
1660:Generated_Source\PSoC4/CapSense_CSD.c **** * Function Name: CapSense_CSD_EnableShieldElectrode
1661:Generated_Source\PSoC4/CapSense_CSD.c **** ********************************************************************************
1662:Generated_Source\PSoC4/CapSense_CSD.c **** *
1663:Generated_Source\PSoC4/CapSense_CSD.c **** * Summary:
1664:Generated_Source\PSoC4/CapSense_CSD.c **** *  This API enables or disables the shield electrode on a specified port pin.
1665:Generated_Source\PSoC4/CapSense_CSD.c **** *
1666:Generated_Source\PSoC4/CapSense_CSD.c **** * Parameters:
1667:Generated_Source\PSoC4/CapSense_CSD.c **** *  portNumber: contains the shield electrode port number (0, 1, 2).
1668:Generated_Source\PSoC4/CapSense_CSD.c **** *  pinNumber: contains the shield electrode pin number (0, 1, 2, ... , 7).
1669:Generated_Source\PSoC4/CapSense_CSD.c **** *
1670:Generated_Source\PSoC4/CapSense_CSD.c **** * Return:
1671:Generated_Source\PSoC4/CapSense_CSD.c **** *  None
1672:Generated_Source\PSoC4/CapSense_CSD.c **** *
1673:Generated_Source\PSoC4/CapSense_CSD.c **** * Global Variables:
1674:Generated_Source\PSoC4/CapSense_CSD.c **** *  CapSense_CSD_prtCfgTbl[] - Contains pointers to the port config registers for each port.
1675:Generated_Source\PSoC4/CapSense_CSD.c **** *  CapSense_CSD_prtSelTbl[] - Contains pointers to the HSIOM registers for each port.
1676:Generated_Source\PSoC4/CapSense_CSD.c **** *
1677:Generated_Source\PSoC4/CapSense_CSD.c **** * Side Effects:
ARM GAS  C:\Users\SHOZO\AppData\Local\Temp\cc2WcnYb.s 			page 67


1678:Generated_Source\PSoC4/CapSense_CSD.c **** *  None
1679:Generated_Source\PSoC4/CapSense_CSD.c **** *
1680:Generated_Source\PSoC4/CapSense_CSD.c **** *******************************************************************************/
1681:Generated_Source\PSoC4/CapSense_CSD.c **** void CapSense_CSD_EnableShieldElectrode(uint32 pinNumber, uint32 portNumber)
1682:Generated_Source\PSoC4/CapSense_CSD.c **** {
 2068              		.loc 1 1682 0
 2069              		.cfi_startproc
 2070              		@ args = 0, pretend = 0, frame = 16
 2071              		@ frame_needed = 1, uses_anonymous_args = 0
 2072 0000 80B5     		push	{r7, lr}
 2073              		.cfi_def_cfa_offset 8
 2074              		.cfi_offset 7, -8
 2075              		.cfi_offset 14, -4
 2076 0002 84B0     		sub	sp, sp, #16
 2077              		.cfi_def_cfa_offset 24
 2078 0004 00AF     		add	r7, sp, #0
 2079              		.cfi_def_cfa_register 7
 2080 0006 7860     		str	r0, [r7, #4]
 2081 0008 3960     		str	r1, [r7]
1683:Generated_Source\PSoC4/CapSense_CSD.c ****     uint32 newRegValue;
1684:Generated_Source\PSoC4/CapSense_CSD.c **** 
1685:Generated_Source\PSoC4/CapSense_CSD.c ****     *CapSense_CSD_prtCfgTbl[portNumber] &= ~(CapSense_CSD_CSD_PIN_MODE_MASK << (pinNumber * CapSens
 2082              		.loc 1 1685 0
 2083 000a 1A4B     		ldr	r3, .L96
 2084 000c 3A68     		ldr	r2, [r7]
 2085 000e 9200     		lsls	r2, r2, #2
 2086 0010 D258     		ldr	r2, [r2, r3]
 2087 0012 184B     		ldr	r3, .L96
 2088 0014 3968     		ldr	r1, [r7]
 2089 0016 8900     		lsls	r1, r1, #2
 2090 0018 CB58     		ldr	r3, [r1, r3]
 2091 001a 1868     		ldr	r0, [r3]
 2092 001c 7968     		ldr	r1, [r7, #4]
 2093 001e 0B00     		movs	r3, r1
 2094 0020 5B00     		lsls	r3, r3, #1
 2095 0022 5B18     		adds	r3, r3, r1
 2096 0024 0721     		movs	r1, #7
 2097 0026 9940     		lsls	r1, r1, r3
 2098 0028 0B00     		movs	r3, r1
 2099 002a DB43     		mvns	r3, r3
 2100 002c 0340     		ands	r3, r0
 2101 002e 1360     		str	r3, [r2]
1686:Generated_Source\PSoC4/CapSense_CSD.c ****     newRegValue = *CapSense_CSD_prtSelTbl[portNumber];
 2102              		.loc 1 1686 0
 2103 0030 114B     		ldr	r3, .L96+4
 2104 0032 3A68     		ldr	r2, [r7]
 2105 0034 9200     		lsls	r2, r2, #2
 2106 0036 D358     		ldr	r3, [r2, r3]
 2107 0038 1B68     		ldr	r3, [r3]
 2108 003a FB60     		str	r3, [r7, #12]
1687:Generated_Source\PSoC4/CapSense_CSD.c ****     newRegValue &= ~(CapSense_CSD_CSD_HSIOM_MASK << (pinNumber * CapSense_CSD_HSIOM_PIN_CFG_SIZE));
 2109              		.loc 1 1687 0
 2110 003c 7B68     		ldr	r3, [r7, #4]
 2111 003e 9B00     		lsls	r3, r3, #2
 2112 0040 0F22     		movs	r2, #15
 2113 0042 9A40     		lsls	r2, r2, r3
 2114 0044 1300     		movs	r3, r2
ARM GAS  C:\Users\SHOZO\AppData\Local\Temp\cc2WcnYb.s 			page 68


 2115 0046 DA43     		mvns	r2, r3
 2116 0048 FB68     		ldr	r3, [r7, #12]
 2117 004a 1340     		ands	r3, r2
 2118 004c FB60     		str	r3, [r7, #12]
1688:Generated_Source\PSoC4/CapSense_CSD.c ****     newRegValue |= (CapSense_CSD_CSD_SHIELD_PORT_MODE << (pinNumber * CapSense_CSD_HSIOM_PIN_CFG_SI
 2119              		.loc 1 1688 0
 2120 004e 7B68     		ldr	r3, [r7, #4]
 2121 0050 9B00     		lsls	r3, r3, #2
 2122 0052 0522     		movs	r2, #5
 2123 0054 9A40     		lsls	r2, r2, r3
 2124 0056 1300     		movs	r3, r2
 2125 0058 FA68     		ldr	r2, [r7, #12]
 2126 005a 1343     		orrs	r3, r2
 2127 005c FB60     		str	r3, [r7, #12]
1689:Generated_Source\PSoC4/CapSense_CSD.c ****     *CapSense_CSD_prtSelTbl[portNumber] = newRegValue;
 2128              		.loc 1 1689 0
 2129 005e 064B     		ldr	r3, .L96+4
 2130 0060 3A68     		ldr	r2, [r7]
 2131 0062 9200     		lsls	r2, r2, #2
 2132 0064 D358     		ldr	r3, [r2, r3]
 2133 0066 FA68     		ldr	r2, [r7, #12]
 2134 0068 1A60     		str	r2, [r3]
1690:Generated_Source\PSoC4/CapSense_CSD.c **** }
 2135              		.loc 1 1690 0
 2136 006a C046     		nop
 2137 006c BD46     		mov	sp, r7
 2138 006e 04B0     		add	sp, sp, #16
 2139              		@ sp needed
 2140 0070 80BD     		pop	{r7, pc}
 2141              	.L97:
 2142 0072 C046     		.align	2
 2143              	.L96:
 2144 0074 00000000 		.word	CapSense_CSD_prtCfgTbl
 2145 0078 00000000 		.word	CapSense_CSD_prtSelTbl
 2146              		.cfi_endproc
 2147              	.LFE54:
 2148              		.size	CapSense_CSD_EnableShieldElectrode, .-CapSense_CSD_EnableShieldElectrode
 2149              		.section	.text.CapSense_CSD_SetShieldDelay,"ax",%progbits
 2150              		.align	2
 2151              		.global	CapSense_CSD_SetShieldDelay
 2152              		.code	16
 2153              		.thumb_func
 2154              		.type	CapSense_CSD_SetShieldDelay, %function
 2155              	CapSense_CSD_SetShieldDelay:
 2156              	.LFB55:
1691:Generated_Source\PSoC4/CapSense_CSD.c **** 
1692:Generated_Source\PSoC4/CapSense_CSD.c **** 
1693:Generated_Source\PSoC4/CapSense_CSD.c **** /*******************************************************************************
1694:Generated_Source\PSoC4/CapSense_CSD.c **** * Function Name: CapSense_CSD_SetShieldDelay
1695:Generated_Source\PSoC4/CapSense_CSD.c **** ********************************************************************************
1696:Generated_Source\PSoC4/CapSense_CSD.c **** *
1697:Generated_Source\PSoC4/CapSense_CSD.c **** * Summary:
1698:Generated_Source\PSoC4/CapSense_CSD.c **** *  This API sets a shield delay.
1699:Generated_Source\PSoC4/CapSense_CSD.c **** *
1700:Generated_Source\PSoC4/CapSense_CSD.c **** * Parameters:
1701:Generated_Source\PSoC4/CapSense_CSD.c **** *  delay:  shield delay value:
1702:Generated_Source\PSoC4/CapSense_CSD.c **** *                               0 - no delay
ARM GAS  C:\Users\SHOZO\AppData\Local\Temp\cc2WcnYb.s 			page 69


1703:Generated_Source\PSoC4/CapSense_CSD.c **** *                               1 - 1 cycle delay
1704:Generated_Source\PSoC4/CapSense_CSD.c **** *                               2 - 2 cycles delay
1705:Generated_Source\PSoC4/CapSense_CSD.c **** *
1706:Generated_Source\PSoC4/CapSense_CSD.c **** * Return:
1707:Generated_Source\PSoC4/CapSense_CSD.c **** *  None
1708:Generated_Source\PSoC4/CapSense_CSD.c **** *
1709:Generated_Source\PSoC4/CapSense_CSD.c **** * Global Variables:
1710:Generated_Source\PSoC4/CapSense_CSD.c **** *  None
1711:Generated_Source\PSoC4/CapSense_CSD.c **** *
1712:Generated_Source\PSoC4/CapSense_CSD.c **** * Side Effects:
1713:Generated_Source\PSoC4/CapSense_CSD.c **** *  None
1714:Generated_Source\PSoC4/CapSense_CSD.c **** *
1715:Generated_Source\PSoC4/CapSense_CSD.c **** *******************************************************************************/
1716:Generated_Source\PSoC4/CapSense_CSD.c **** void CapSense_CSD_SetShieldDelay(uint32 delay)
1717:Generated_Source\PSoC4/CapSense_CSD.c **** {
 2157              		.loc 1 1717 0
 2158              		.cfi_startproc
 2159              		@ args = 0, pretend = 0, frame = 16
 2160              		@ frame_needed = 1, uses_anonymous_args = 0
 2161 0000 80B5     		push	{r7, lr}
 2162              		.cfi_def_cfa_offset 8
 2163              		.cfi_offset 7, -8
 2164              		.cfi_offset 14, -4
 2165 0002 84B0     		sub	sp, sp, #16
 2166              		.cfi_def_cfa_offset 24
 2167 0004 00AF     		add	r7, sp, #0
 2168              		.cfi_def_cfa_register 7
 2169 0006 7860     		str	r0, [r7, #4]
1718:Generated_Source\PSoC4/CapSense_CSD.c ****     uint32 newRegValue;
1719:Generated_Source\PSoC4/CapSense_CSD.c **** 
1720:Generated_Source\PSoC4/CapSense_CSD.c ****     delay &= 0x03u;
 2170              		.loc 1 1720 0
 2171 0008 7B68     		ldr	r3, [r7, #4]
 2172 000a 0322     		movs	r2, #3
 2173 000c 1340     		ands	r3, r2
 2174 000e 7B60     		str	r3, [r7, #4]
1721:Generated_Source\PSoC4/CapSense_CSD.c **** 
1722:Generated_Source\PSoC4/CapSense_CSD.c ****     newRegValue = CapSense_CSD_CSD_CFG_REG;
 2175              		.loc 1 1722 0
 2176 0010 074B     		ldr	r3, .L99
 2177 0012 1B68     		ldr	r3, [r3]
 2178 0014 FB60     		str	r3, [r7, #12]
1723:Generated_Source\PSoC4/CapSense_CSD.c ****     newRegValue &= (uint32)(~(uint32)CapSense_CSD_SHIELD_DELAY);
1724:Generated_Source\PSoC4/CapSense_CSD.c ****     newRegValue |= (delay << CapSense_CSD_CSD_CFG_SHIELD_DELAY_POS);
 2179              		.loc 1 1724 0
 2180 0016 7B68     		ldr	r3, [r7, #4]
 2181 0018 5B02     		lsls	r3, r3, #9
 2182 001a FA68     		ldr	r2, [r7, #12]
 2183 001c 1343     		orrs	r3, r2
 2184 001e FB60     		str	r3, [r7, #12]
1725:Generated_Source\PSoC4/CapSense_CSD.c ****     CapSense_CSD_CSD_CFG_REG = newRegValue;
 2185              		.loc 1 1725 0
 2186 0020 034B     		ldr	r3, .L99
 2187 0022 FA68     		ldr	r2, [r7, #12]
 2188 0024 1A60     		str	r2, [r3]
1726:Generated_Source\PSoC4/CapSense_CSD.c **** }
 2189              		.loc 1 1726 0
ARM GAS  C:\Users\SHOZO\AppData\Local\Temp\cc2WcnYb.s 			page 70


 2190 0026 C046     		nop
 2191 0028 BD46     		mov	sp, r7
 2192 002a 04B0     		add	sp, sp, #16
 2193              		@ sp needed
 2194 002c 80BD     		pop	{r7, pc}
 2195              	.L100:
 2196 002e C046     		.align	2
 2197              	.L99:
 2198 0030 04000840 		.word	1074266116
 2199              		.cfi_endproc
 2200              	.LFE55:
 2201              		.size	CapSense_CSD_SetShieldDelay, .-CapSense_CSD_SetShieldDelay
 2202              		.section	.text.CapSense_CSD_ReadCurrentScanningSensor,"ax",%progbits
 2203              		.align	2
 2204              		.global	CapSense_CSD_ReadCurrentScanningSensor
 2205              		.code	16
 2206              		.thumb_func
 2207              		.type	CapSense_CSD_ReadCurrentScanningSensor, %function
 2208              	CapSense_CSD_ReadCurrentScanningSensor:
 2209              	.LFB56:
1727:Generated_Source\PSoC4/CapSense_CSD.c **** 
1728:Generated_Source\PSoC4/CapSense_CSD.c **** 
1729:Generated_Source\PSoC4/CapSense_CSD.c **** /*******************************************************************************
1730:Generated_Source\PSoC4/CapSense_CSD.c **** * Function Name: CapSense_CSD_ReadCurrentScanningSensor
1731:Generated_Source\PSoC4/CapSense_CSD.c **** ********************************************************************************
1732:Generated_Source\PSoC4/CapSense_CSD.c **** *
1733:Generated_Source\PSoC4/CapSense_CSD.c **** * Summary:
1734:Generated_Source\PSoC4/CapSense_CSD.c **** *  This API returns scanning sensor number when sensor scan is in progress.
1735:Generated_Source\PSoC4/CapSense_CSD.c **** *  When sensor scan is completed the API returns
1736:Generated_Source\PSoC4/CapSense_CSD.c **** *  $INSTANCE_NAME`_NOT_SENSOR (0xFFFFFFFF) (when no sensor is scanned).
1737:Generated_Source\PSoC4/CapSense_CSD.c **** *
1738:Generated_Source\PSoC4/CapSense_CSD.c **** * Parameters:
1739:Generated_Source\PSoC4/CapSense_CSD.c **** *   None.
1740:Generated_Source\PSoC4/CapSense_CSD.c **** *
1741:Generated_Source\PSoC4/CapSense_CSD.c **** * Return:
1742:Generated_Source\PSoC4/CapSense_CSD.c **** *  Returns Sensor number if sensor is being scanned and
1743:Generated_Source\PSoC4/CapSense_CSD.c **** *  $INSTANCE_NAME`_NOT_SENSOR (0xFFFFFFFF) if scanning is complete.
1744:Generated_Source\PSoC4/CapSense_CSD.c **** *
1745:Generated_Source\PSoC4/CapSense_CSD.c **** * Global Variables:
1746:Generated_Source\PSoC4/CapSense_CSD.c **** *  CapSense_CSD_sensorIndex - the sensor number is being scanned.
1747:Generated_Source\PSoC4/CapSense_CSD.c **** *
1748:Generated_Source\PSoC4/CapSense_CSD.c **** * Side Effects:
1749:Generated_Source\PSoC4/CapSense_CSD.c **** *  None
1750:Generated_Source\PSoC4/CapSense_CSD.c **** *
1751:Generated_Source\PSoC4/CapSense_CSD.c **** *******************************************************************************/
1752:Generated_Source\PSoC4/CapSense_CSD.c **** uint32 CapSense_CSD_ReadCurrentScanningSensor(void)
1753:Generated_Source\PSoC4/CapSense_CSD.c **** {
 2210              		.loc 1 1753 0
 2211              		.cfi_startproc
 2212              		@ args = 0, pretend = 0, frame = 0
 2213              		@ frame_needed = 1, uses_anonymous_args = 0
 2214 0000 80B5     		push	{r7, lr}
 2215              		.cfi_def_cfa_offset 8
 2216              		.cfi_offset 7, -8
 2217              		.cfi_offset 14, -4
 2218 0002 00AF     		add	r7, sp, #0
 2219              		.cfi_def_cfa_register 7
ARM GAS  C:\Users\SHOZO\AppData\Local\Temp\cc2WcnYb.s 			page 71


1754:Generated_Source\PSoC4/CapSense_CSD.c ****     return ((uint32)(( 0u != (CapSense_CSD_csdStatusVar & CapSense_CSD_SW_STS_BUSY)) ?
 2220              		.loc 1 1754 0
 2221 0004 074B     		ldr	r3, .L105
 2222 0006 1B78     		ldrb	r3, [r3]
 2223 0008 DBB2     		uxtb	r3, r3
 2224 000a 1A00     		movs	r2, r3
 2225 000c 0123     		movs	r3, #1
 2226 000e 1340     		ands	r3, r2
 2227 0010 03D0     		beq	.L102
 2228              		.loc 1 1754 0 is_stmt 0 discriminator 1
 2229 0012 054B     		ldr	r3, .L105+4
 2230 0014 1B78     		ldrb	r3, [r3]
 2231 0016 DBB2     		uxtb	r3, r3
 2232 0018 01E0     		b	.L104
 2233              	.L102:
 2234              		.loc 1 1754 0 discriminator 2
 2235 001a 0123     		movs	r3, #1
 2236 001c 5B42     		rsbs	r3, r3, #0
 2237              	.L104:
1755:Generated_Source\PSoC4/CapSense_CSD.c ****                      CapSense_CSD_sensorIndex : CapSense_CSD_NOT_SENSOR));
1756:Generated_Source\PSoC4/CapSense_CSD.c **** }
 2238              		.loc 1 1756 0 is_stmt 1 discriminator 5
 2239 001e 1800     		movs	r0, r3
 2240 0020 BD46     		mov	sp, r7
 2241              		@ sp needed
 2242 0022 80BD     		pop	{r7, pc}
 2243              	.L106:
 2244              		.align	2
 2245              	.L105:
 2246 0024 00000000 		.word	CapSense_CSD_csdStatusVar
 2247 0028 00000000 		.word	CapSense_CSD_sensorIndex
 2248              		.cfi_endproc
 2249              	.LFE56:
 2250              		.size	CapSense_CSD_ReadCurrentScanningSensor, .-CapSense_CSD_ReadCurrentScanningSensor
 2251              		.section	.text.CapSense_CSD_GetBitValue,"ax",%progbits
 2252              		.align	2
 2253              		.global	CapSense_CSD_GetBitValue
 2254              		.code	16
 2255              		.thumb_func
 2256              		.type	CapSense_CSD_GetBitValue, %function
 2257              	CapSense_CSD_GetBitValue:
 2258              	.LFB57:
1757:Generated_Source\PSoC4/CapSense_CSD.c **** 
1758:Generated_Source\PSoC4/CapSense_CSD.c **** 
1759:Generated_Source\PSoC4/CapSense_CSD.c **** /*******************************************************************************
1760:Generated_Source\PSoC4/CapSense_CSD.c **** * Function Name: CapSense_CSD_GetBitValue
1761:Generated_Source\PSoC4/CapSense_CSD.c **** ********************************************************************************
1762:Generated_Source\PSoC4/CapSense_CSD.c **** *
1763:Generated_Source\PSoC4/CapSense_CSD.c **** * Summary:
1764:Generated_Source\PSoC4/CapSense_CSD.c **** *  The API returns a bit status of the bit in the table array which contains the masks.
1765:Generated_Source\PSoC4/CapSense_CSD.c **** *
1766:Generated_Source\PSoC4/CapSense_CSD.c **** * Parameters:
1767:Generated_Source\PSoC4/CapSense_CSD.c **** *  table[] - array with bit masks.
1768:Generated_Source\PSoC4/CapSense_CSD.c **** *  position - position of bit in the table[] array.
1769:Generated_Source\PSoC4/CapSense_CSD.c **** *
1770:Generated_Source\PSoC4/CapSense_CSD.c **** * Return:
1771:Generated_Source\PSoC4/CapSense_CSD.c **** *  0 - bit is not set; 1 - bit is set.
ARM GAS  C:\Users\SHOZO\AppData\Local\Temp\cc2WcnYb.s 			page 72


1772:Generated_Source\PSoC4/CapSense_CSD.c **** *
1773:Generated_Source\PSoC4/CapSense_CSD.c **** * Global Variables:
1774:Generated_Source\PSoC4/CapSense_CSD.c **** *  None
1775:Generated_Source\PSoC4/CapSense_CSD.c **** *
1776:Generated_Source\PSoC4/CapSense_CSD.c **** * Side Effects:
1777:Generated_Source\PSoC4/CapSense_CSD.c **** *  None
1778:Generated_Source\PSoC4/CapSense_CSD.c **** *
1779:Generated_Source\PSoC4/CapSense_CSD.c **** *******************************************************************************/
1780:Generated_Source\PSoC4/CapSense_CSD.c **** uint32 CapSense_CSD_GetBitValue(const uint8 table[], uint32 position)
1781:Generated_Source\PSoC4/CapSense_CSD.c **** {
 2259              		.loc 1 1781 0
 2260              		.cfi_startproc
 2261              		@ args = 0, pretend = 0, frame = 16
 2262              		@ frame_needed = 1, uses_anonymous_args = 0
 2263 0000 80B5     		push	{r7, lr}
 2264              		.cfi_def_cfa_offset 8
 2265              		.cfi_offset 7, -8
 2266              		.cfi_offset 14, -4
 2267 0002 84B0     		sub	sp, sp, #16
 2268              		.cfi_def_cfa_offset 24
 2269 0004 00AF     		add	r7, sp, #0
 2270              		.cfi_def_cfa_register 7
 2271 0006 7860     		str	r0, [r7, #4]
 2272 0008 3960     		str	r1, [r7]
1782:Generated_Source\PSoC4/CapSense_CSD.c ****     uint32 offset;
1783:Generated_Source\PSoC4/CapSense_CSD.c ****     uint8 enMask;
1784:Generated_Source\PSoC4/CapSense_CSD.c **** 
1785:Generated_Source\PSoC4/CapSense_CSD.c ****     /* position is divided by 8 to calculate the element of the
1786:Generated_Source\PSoC4/CapSense_CSD.c ****        table[] array that contains the enable bit
1787:Generated_Source\PSoC4/CapSense_CSD.c ****        for an appropriate sensor.
1788:Generated_Source\PSoC4/CapSense_CSD.c ****     */
1789:Generated_Source\PSoC4/CapSense_CSD.c ****     offset = (position >> 3u);
 2273              		.loc 1 1789 0
 2274 000a 3B68     		ldr	r3, [r7]
 2275 000c DB08     		lsrs	r3, r3, #3
 2276 000e FB60     		str	r3, [r7, #12]
1790:Generated_Source\PSoC4/CapSense_CSD.c **** 
1791:Generated_Source\PSoC4/CapSense_CSD.c ****     /* The enMask calculation for the appropriate sensor. Operation (position & 0x07u)
1792:Generated_Source\PSoC4/CapSense_CSD.c ****        intends to calculate the enable bit offset for the 8-bit element of the
1793:Generated_Source\PSoC4/CapSense_CSD.c ****        table[] array.
1794:Generated_Source\PSoC4/CapSense_CSD.c ****     */
1795:Generated_Source\PSoC4/CapSense_CSD.c ****     enMask = 0x01u << (position & 0x07u);
 2277              		.loc 1 1795 0
 2278 0010 3B68     		ldr	r3, [r7]
 2279 0012 0722     		movs	r2, #7
 2280 0014 1340     		ands	r3, r2
 2281 0016 0122     		movs	r2, #1
 2282 0018 9A40     		lsls	r2, r2, r3
 2283 001a 0B23     		movs	r3, #11
 2284 001c FB18     		adds	r3, r7, r3
 2285 001e 1A70     		strb	r2, [r3]
1796:Generated_Source\PSoC4/CapSense_CSD.c **** 
1797:Generated_Source\PSoC4/CapSense_CSD.c ****     return ((0u !=(table[offset] & enMask)) ? 1Lu : 0Lu);
 2286              		.loc 1 1797 0
 2287 0020 7A68     		ldr	r2, [r7, #4]
 2288 0022 FB68     		ldr	r3, [r7, #12]
 2289 0024 D318     		adds	r3, r2, r3
ARM GAS  C:\Users\SHOZO\AppData\Local\Temp\cc2WcnYb.s 			page 73


 2290 0026 1B78     		ldrb	r3, [r3]
 2291 0028 0B22     		movs	r2, #11
 2292 002a BA18     		adds	r2, r7, r2
 2293 002c 1278     		ldrb	r2, [r2]
 2294 002e 1340     		ands	r3, r2
 2295 0030 DBB2     		uxtb	r3, r3
 2296 0032 002B     		cmp	r3, #0
 2297 0034 01D0     		beq	.L108
 2298              		.loc 1 1797 0 is_stmt 0 discriminator 1
 2299 0036 0123     		movs	r3, #1
 2300 0038 00E0     		b	.L110
 2301              	.L108:
 2302              		.loc 1 1797 0 discriminator 2
 2303 003a 0023     		movs	r3, #0
 2304              	.L110:
1798:Generated_Source\PSoC4/CapSense_CSD.c **** }
 2305              		.loc 1 1798 0 is_stmt 1 discriminator 5
 2306 003c 1800     		movs	r0, r3
 2307 003e BD46     		mov	sp, r7
 2308 0040 04B0     		add	sp, sp, #16
 2309              		@ sp needed
 2310 0042 80BD     		pop	{r7, pc}
 2311              		.cfi_endproc
 2312              	.LFE57:
 2313              		.size	CapSense_CSD_GetBitValue, .-CapSense_CSD_GetBitValue
 2314              		.section	.text.CapSense_CSD_SetBitValue,"ax",%progbits
 2315              		.align	2
 2316              		.global	CapSense_CSD_SetBitValue
 2317              		.code	16
 2318              		.thumb_func
 2319              		.type	CapSense_CSD_SetBitValue, %function
 2320              	CapSense_CSD_SetBitValue:
 2321              	.LFB58:
1799:Generated_Source\PSoC4/CapSense_CSD.c **** 
1800:Generated_Source\PSoC4/CapSense_CSD.c **** 
1801:Generated_Source\PSoC4/CapSense_CSD.c **** /*******************************************************************************
1802:Generated_Source\PSoC4/CapSense_CSD.c **** * Function Name: CapSense_CSD_SetBitValue
1803:Generated_Source\PSoC4/CapSense_CSD.c **** ********************************************************************************
1804:Generated_Source\PSoC4/CapSense_CSD.c **** *
1805:Generated_Source\PSoC4/CapSense_CSD.c **** * Summary:
1806:Generated_Source\PSoC4/CapSense_CSD.c **** *  The API sets a bit status of the bit in the table array which contains masks.
1807:Generated_Source\PSoC4/CapSense_CSD.c **** *
1808:Generated_Source\PSoC4/CapSense_CSD.c **** * Parameters:
1809:Generated_Source\PSoC4/CapSense_CSD.c **** *  table[] - array with bit masks.
1810:Generated_Source\PSoC4/CapSense_CSD.c **** *  position - position of bit in the table[] array.
1811:Generated_Source\PSoC4/CapSense_CSD.c **** *  value: 0 - bit is not set; 1 - bit is set.
1812:Generated_Source\PSoC4/CapSense_CSD.c **** *
1813:Generated_Source\PSoC4/CapSense_CSD.c **** * Return:
1814:Generated_Source\PSoC4/CapSense_CSD.c **** *  None
1815:Generated_Source\PSoC4/CapSense_CSD.c **** *
1816:Generated_Source\PSoC4/CapSense_CSD.c **** * Global Variables:
1817:Generated_Source\PSoC4/CapSense_CSD.c **** *  None
1818:Generated_Source\PSoC4/CapSense_CSD.c **** *
1819:Generated_Source\PSoC4/CapSense_CSD.c **** * Side Effects:
1820:Generated_Source\PSoC4/CapSense_CSD.c **** *  None
1821:Generated_Source\PSoC4/CapSense_CSD.c **** *
1822:Generated_Source\PSoC4/CapSense_CSD.c **** *******************************************************************************/
ARM GAS  C:\Users\SHOZO\AppData\Local\Temp\cc2WcnYb.s 			page 74


1823:Generated_Source\PSoC4/CapSense_CSD.c **** void CapSense_CSD_SetBitValue(uint8 table[], uint32 position, uint32 value)
1824:Generated_Source\PSoC4/CapSense_CSD.c **** {
 2322              		.loc 1 1824 0
 2323              		.cfi_startproc
 2324              		@ args = 0, pretend = 0, frame = 24
 2325              		@ frame_needed = 1, uses_anonymous_args = 0
 2326 0000 80B5     		push	{r7, lr}
 2327              		.cfi_def_cfa_offset 8
 2328              		.cfi_offset 7, -8
 2329              		.cfi_offset 14, -4
 2330 0002 86B0     		sub	sp, sp, #24
 2331              		.cfi_def_cfa_offset 32
 2332 0004 00AF     		add	r7, sp, #0
 2333              		.cfi_def_cfa_register 7
 2334 0006 F860     		str	r0, [r7, #12]
 2335 0008 B960     		str	r1, [r7, #8]
 2336 000a 7A60     		str	r2, [r7, #4]
1825:Generated_Source\PSoC4/CapSense_CSD.c ****     uint32 offset;
1826:Generated_Source\PSoC4/CapSense_CSD.c ****     uint8 enMask;
1827:Generated_Source\PSoC4/CapSense_CSD.c **** 
1828:Generated_Source\PSoC4/CapSense_CSD.c ****     /* position is divided by 8 to calculate the element of the
1829:Generated_Source\PSoC4/CapSense_CSD.c ****        table[] array that contains the enable bit
1830:Generated_Source\PSoC4/CapSense_CSD.c ****        for an appropriate sensor.
1831:Generated_Source\PSoC4/CapSense_CSD.c ****     */
1832:Generated_Source\PSoC4/CapSense_CSD.c ****     offset = (position >> 3u);
 2337              		.loc 1 1832 0
 2338 000c BB68     		ldr	r3, [r7, #8]
 2339 000e DB08     		lsrs	r3, r3, #3
 2340 0010 7B61     		str	r3, [r7, #20]
1833:Generated_Source\PSoC4/CapSense_CSD.c **** 
1834:Generated_Source\PSoC4/CapSense_CSD.c ****     /* The enMask calculation for the appropriate sensor. Operation (position & 0x07u)
1835:Generated_Source\PSoC4/CapSense_CSD.c ****        intends to calculate the enable bit offset for the 8-bit element of the
1836:Generated_Source\PSoC4/CapSense_CSD.c ****        table[] array.
1837:Generated_Source\PSoC4/CapSense_CSD.c ****     */
1838:Generated_Source\PSoC4/CapSense_CSD.c ****     enMask = 0x01u << (position & 0x07u);
 2341              		.loc 1 1838 0
 2342 0012 BB68     		ldr	r3, [r7, #8]
