ARM GAS  C:\Users\SHOZO\AppData\Local\Temp\ccTwovJ4.s 			page 1


   1              		.syntax unified
   2              		.cpu cortex-m0
   3              		.fpu softvfp
   4              		.eabi_attribute 20, 1
   5              		.eabi_attribute 21, 1
   6              		.eabi_attribute 23, 3
   7              		.eabi_attribute 24, 1
   8              		.eabi_attribute 25, 1
   9              		.eabi_attribute 26, 1
  10              		.eabi_attribute 30, 6
  11              		.eabi_attribute 34, 0
  12              		.eabi_attribute 18, 4
  13              		.thumb
  14              		.syntax unified
  15              		.file	"main.c"
  16              		.text
  17              	.Ltext0:
  18              		.cfi_sections	.debug_frame
  19              		.comm	bright,2,2
  20              		.global	Button
  21              		.bss
  22              		.align	2
  23              		.type	Button, %object
  24              		.size	Button, 52
  25              	Button:
  26 0000 00000000 		.space	52
  26      00000000 
  26      00000000 
  26      00000000 
  26      00000000 
  27              		.global	Status
  28              		.align	2
  29              		.type	Status, %object
  30              		.size	Status, 52
  31              	Status:
  32 0034 00000000 		.space	52
  32      00000000 
  32      00000000 
  32      00000000 
  32      00000000 
  33              		.global	SendData
  34              		.align	2
  35              		.type	SendData, %object
  36              		.size	SendData, 52
  37              	SendData:
  38 0068 00000000 		.space	52
  38      00000000 
  38      00000000 
  38      00000000 
  38      00000000 
  39              		.comm	sData,78,4
  40              		.global	msgData
  41              		.data
  42              		.align	2
  43              		.type	msgData, %object
  44              		.size	msgData, 52
  45              	msgData:
ARM GAS  C:\Users\SHOZO\AppData\Local\Temp\ccTwovJ4.s 			page 2


  46 0000 0A000000 		.word	10
  47 0004 14000000 		.word	20
  48 0008 1E000000 		.word	30
  49 000c 28000000 		.word	40
  50 0010 32000000 		.word	50
  51 0014 3C000000 		.word	60
  52 0018 46000000 		.word	70
  53 001c 50000000 		.word	80
  54 0020 5A000000 		.word	90
  55 0024 64000000 		.word	100
  56 0028 6E000000 		.word	110
  57 002c 78000000 		.word	120
  58 0030 82000000 		.word	130
  59              		.global	__aeabi_i2d
  60              		.global	__aeabi_dmul
  61              		.global	__aeabi_d2uiz
  62              		.section	.text.main,"ax",%progbits
  63              		.align	2
  64              		.global	main
  65              		.code	16
  66              		.thumb_func
  67              		.type	main, %function
  68              	main:
  69              	.LFB32:
  70              		.file 1 "main.c"
   1:main.c        **** #include "project.h"
   2:main.c        **** 
   3:main.c        **** void CapSense_DisplayState(void);
   4:main.c        **** 
   5:main.c        **** uint16 bright;
   6:main.c        **** int Button[13]={0,0,0,0,0,0,0,0,0,0,0,0,0};
   7:main.c        **** int Status[13]={0,0,0,0,0,0,0,0,0,0,0,0,0};
   8:main.c        **** int SendData[13]={0,0,0,0,0,0,0,0,0,0,0,0,0};
   9:main.c        **** struct SensorData{
  10:main.c        **** 	uint16	RawCount;
  11:main.c        **** 	uint16	Baseline;
  12:main.c        **** 	uint16	Diff;
  13:main.c        **** };
  14:main.c        **** typedef struct SensorData SnsDat;
  15:main.c        **** SnsDat sData[13];
  16:main.c        **** 
  17:main.c        **** int msgData[13]={10,20,30,40,50,60,70,80,90,100,110,120,130};
  18:main.c        **** 
  19:main.c        **** int main()
  20:main.c        **** {
  71              		.loc 1 20 0
  72              		.cfi_startproc
  73              		@ args = 0, pretend = 0, frame = 8
  74              		@ frame_needed = 1, uses_anonymous_args = 0
  75 0000 90B5     		push	{r4, r7, lr}
  76              		.cfi_def_cfa_offset 12
  77              		.cfi_offset 4, -12
  78              		.cfi_offset 7, -8
  79              		.cfi_offset 14, -4
  80 0002 83B0     		sub	sp, sp, #12
  81              		.cfi_def_cfa_offset 24
  82 0004 00AF     		add	r7, sp, #0
ARM GAS  C:\Users\SHOZO\AppData\Local\Temp\ccTwovJ4.s 			page 3


  83              		.cfi_def_cfa_register 7
  21:main.c        ****     int i;
  22:main.c        ****     
  23:main.c        ****     /* Enable global interrupts */
  24:main.c        ****     CyGlobalIntEnable;
  84              		.loc 1 24 0
  85              		.syntax divided
  86              	@ 24 "main.c" 1
  87 0006 62B6     		CPSIE   i
  88              	@ 0 "" 2
  25:main.c        **** 
  26:main.c        ****     /* Start PWM and CapSense components */
  27:main.c        ****     LED_CONTROL_Start();
  89              		.loc 1 27 0
  90              		.thumb
  91              		.syntax unified
  92 0008 FFF7FEFF 		bl	LED_CONTROL_Start
  28:main.c        **** 
  29:main.c        ****     CapSense_CSD_Start();
  93              		.loc 1 29 0
  94 000c FFF7FEFF 		bl	CapSense_CSD_Start
  30:main.c        **** 
  31:main.c        ****     UART_1_Start();
  95              		.loc 1 31 0
  96 0010 FFF7FEFF 		bl	UART_1_Start
  32:main.c        ****    
  33:main.c        ****     
  34:main.c        ****     /* Initialize baselines */
  35:main.c        ****     CapSense_CSD_InitializeAllBaselines();
  97              		.loc 1 35 0
  98 0014 FFF7FEFF 		bl	CapSense_CSD_InitializeAllBaselines
  99              	.L11:
 100              	.LBB2:
  36:main.c        **** 
  37:main.c        ****     while(1u)
  38:main.c        ****     {
  39:main.c        ****         uint8 pinstate = Pin_Read();
 101              		.loc 1 39 0
 102 0018 FC1C     		adds	r4, r7, #3
 103 001a FFF7FEFF 		bl	Pin_Read
 104 001e 0300     		movs	r3, r0
 105 0020 2370     		strb	r3, [r4]
  40:main.c        ****         
  41:main.c        ****         //if(UART_1_UartGetByte()=='r'){
  42:main.c        ****         if(pinstate == 0){
 106              		.loc 1 42 0
 107 0022 FB1C     		adds	r3, r7, #3
 108 0024 1B78     		ldrb	r3, [r3]
 109 0026 002B     		cmp	r3, #0
 110 0028 01D1     		bne	.L2
  43:main.c        ****             CapSense_CSD_InitializeAllBaselines();
 111              		.loc 1 43 0
 112 002a FFF7FEFF 		bl	CapSense_CSD_InitializeAllBaselines
 113              	.L2:
  44:main.c        ****         }
  45:main.c        ****         
  46:main.c        **** 
ARM GAS  C:\Users\SHOZO\AppData\Local\Temp\ccTwovJ4.s 			page 4


  47:main.c        ****         
  48:main.c        ****         /* Update all baselines */
  49:main.c        ****         CapSense_CSD_UpdateEnabledBaselines();
 114              		.loc 1 49 0
 115 002e FFF7FEFF 		bl	CapSense_CSD_UpdateEnabledBaselines
  50:main.c        ****         
  51:main.c        ****    		/* Start scanning all enabled sensors */
  52:main.c        ****     	CapSense_CSD_ScanEnabledWidgets();
 116              		.loc 1 52 0
 117 0032 FFF7FEFF 		bl	CapSense_CSD_ScanEnabledWidgets
  53:main.c        ****         
  54:main.c        ****         /* Place your application code here */
  55:main.c        ****         while(CapSense_CSD_IsBusy() != 0);
 118              		.loc 1 55 0
 119 0036 C046     		nop
 120              	.L3:
 121              		.loc 1 55 0 is_stmt 0 discriminator 1
 122 0038 FFF7FEFF 		bl	CapSense_CSD_IsBusy
 123 003c 031E     		subs	r3, r0, #0
 124 003e FBD1     		bne	.L3
  56:main.c        **** 
  57:main.c        ****         for(i=0; i<13; i++){
 125              		.loc 1 57 0 is_stmt 1
 126 0040 0023     		movs	r3, #0
 127 0042 7B60     		str	r3, [r7, #4]
 128 0044 45E0     		b	.L4
 129              	.L10:
  58:main.c        ****             Button[i] = CapSense_CSD_CheckIsWidgetActive(i);
 130              		.loc 1 58 0
 131 0046 7B68     		ldr	r3, [r7, #4]
 132 0048 1800     		movs	r0, r3
 133 004a FFF7FEFF 		bl	CapSense_CSD_CheckIsWidgetActive
 134 004e 0300     		movs	r3, r0
 135 0050 1900     		movs	r1, r3
 136 0052 314B     		ldr	r3, .L12
 137 0054 7A68     		ldr	r2, [r7, #4]
 138 0056 9200     		lsls	r2, r2, #2
 139 0058 D150     		str	r1, [r2, r3]
  59:main.c        ****             if(Button[i]==1){
 140              		.loc 1 59 0
 141 005a 2F4B     		ldr	r3, .L12
 142 005c 7A68     		ldr	r2, [r7, #4]
 143 005e 9200     		lsls	r2, r2, #2
 144 0060 D358     		ldr	r3, [r2, r3]
 145 0062 012B     		cmp	r3, #1
 146 0064 1AD1     		bne	.L5
  60:main.c        ****                 if(Status[i]==0){
 147              		.loc 1 60 0
 148 0066 2D4B     		ldr	r3, .L12+4
 149 0068 7A68     		ldr	r2, [r7, #4]
 150 006a 9200     		lsls	r2, r2, #2
 151 006c D358     		ldr	r3, [r2, r3]
 152 006e 002B     		cmp	r3, #0
 153 0070 0AD1     		bne	.L6
  61:main.c        ****                     Status[i]=1;
 154              		.loc 1 61 0
 155 0072 2A4B     		ldr	r3, .L12+4
ARM GAS  C:\Users\SHOZO\AppData\Local\Temp\ccTwovJ4.s 			page 5


 156 0074 7A68     		ldr	r2, [r7, #4]
 157 0076 9200     		lsls	r2, r2, #2
 158 0078 0121     		movs	r1, #1
 159 007a D150     		str	r1, [r2, r3]
  62:main.c        ****                     SendData[i]=1;
 160              		.loc 1 62 0
 161 007c 284B     		ldr	r3, .L12+8
 162 007e 7A68     		ldr	r2, [r7, #4]
 163 0080 9200     		lsls	r2, r2, #2
 164 0082 0121     		movs	r1, #1
 165 0084 D150     		str	r1, [r2, r3]
 166 0086 04E0     		b	.L7
 167              	.L6:
  63:main.c        ****                 }else{
  64:main.c        ****                     
  65:main.c        ****                     SendData[i]=0;
 168              		.loc 1 65 0
 169 0088 254B     		ldr	r3, .L12+8
 170 008a 7A68     		ldr	r2, [r7, #4]
 171 008c 9200     		lsls	r2, r2, #2
 172 008e 0021     		movs	r1, #0
 173 0090 D150     		str	r1, [r2, r3]
 174              	.L7:
  66:main.c        ****                 }
  67:main.c        ****                 bright=65535;
 175              		.loc 1 67 0
 176 0092 244B     		ldr	r3, .L12+12
 177 0094 0122     		movs	r2, #1
 178 0096 5242     		rsbs	r2, r2, #0
 179 0098 1A80     		strh	r2, [r3]
 180 009a 09E0     		b	.L8
 181              	.L5:
  68:main.c        ****             }else{
  69:main.c        ****                 Status[i]=0;
 182              		.loc 1 69 0
 183 009c 1F4B     		ldr	r3, .L12+4
 184 009e 7A68     		ldr	r2, [r7, #4]
 185 00a0 9200     		lsls	r2, r2, #2
 186 00a2 0021     		movs	r1, #0
 187 00a4 D150     		str	r1, [r2, r3]
  70:main.c        ****                 SendData[i]=0;
 188              		.loc 1 70 0
 189 00a6 1E4B     		ldr	r3, .L12+8
 190 00a8 7A68     		ldr	r2, [r7, #4]
 191 00aa 9200     		lsls	r2, r2, #2
 192 00ac 0021     		movs	r1, #0
 193 00ae D150     		str	r1, [r2, r3]
 194              	.L8:
  71:main.c        ****                 
  72:main.c        ****             }
  73:main.c        ****             
  74:main.c        ****             UART_1_UartPutChar('0'+SendData[i]);
 195              		.loc 1 74 0
 196 00b0 1B4B     		ldr	r3, .L12+8
 197 00b2 7A68     		ldr	r2, [r7, #4]
 198 00b4 9200     		lsls	r2, r2, #2
 199 00b6 D358     		ldr	r3, [r2, r3]
ARM GAS  C:\Users\SHOZO\AppData\Local\Temp\ccTwovJ4.s 			page 6


 200 00b8 3033     		adds	r3, r3, #48
 201 00ba 1800     		movs	r0, r3
 202 00bc FFF7FEFF 		bl	UART_1_SpiUartWriteTxData
  75:main.c        ****                 
  76:main.c        ****             if(i<(13-1)){
 203              		.loc 1 76 0
 204 00c0 7B68     		ldr	r3, [r7, #4]
 205 00c2 0B2B     		cmp	r3, #11
 206 00c4 02DC     		bgt	.L9
  77:main.c        ****                 UART_1_UartPutChar(',');
 207              		.loc 1 77 0
 208 00c6 2C20     		movs	r0, #44
 209 00c8 FFF7FEFF 		bl	UART_1_SpiUartWriteTxData
 210              	.L9:
  57:main.c        ****             Button[i] = CapSense_CSD_CheckIsWidgetActive(i);
 211              		.loc 1 57 0 discriminator 2
 212 00cc 7B68     		ldr	r3, [r7, #4]
 213 00ce 0133     		adds	r3, r3, #1
 214 00d0 7B60     		str	r3, [r7, #4]
 215              	.L4:
  57:main.c        ****             Button[i] = CapSense_CSD_CheckIsWidgetActive(i);
 216              		.loc 1 57 0 is_stmt 0 discriminator 1
 217 00d2 7B68     		ldr	r3, [r7, #4]
 218 00d4 0C2B     		cmp	r3, #12
 219 00d6 B6DD     		ble	.L10
  78:main.c        ****             }
  79:main.c        **** 		}
  80:main.c        ****         //FOOTER    
  81:main.c        ****         UART_1_UartPutChar(10); 
 220              		.loc 1 81 0 is_stmt 1
 221 00d8 0A20     		movs	r0, #10
 222 00da FFF7FEFF 		bl	UART_1_SpiUartWriteTxData
  82:main.c        ****         UART_1_UartPutChar(13); 
 223              		.loc 1 82 0
 224 00de 0D20     		movs	r0, #13
 225 00e0 FFF7FEFF 		bl	UART_1_SpiUartWriteTxData
  83:main.c        ****                 
  84:main.c        ****         LED_CONTROL_WriteCompare((uint32)bright);
 226              		.loc 1 84 0
 227 00e4 0F4B     		ldr	r3, .L12+12
 228 00e6 1B88     		ldrh	r3, [r3]
 229 00e8 1800     		movs	r0, r3
 230 00ea FFF7FEFF 		bl	LED_CONTROL_WriteCompare
  85:main.c        ****         bright*=0.99;
 231              		.loc 1 85 0
 232 00ee 0D4B     		ldr	r3, .L12+12
 233 00f0 1B88     		ldrh	r3, [r3]
 234 00f2 1800     		movs	r0, r3
 235 00f4 FFF7FEFF 		bl	__aeabi_i2d
 236 00f8 0B4A     		ldr	r2, .L12+16
 237 00fa 0C4B     		ldr	r3, .L12+20
 238 00fc FFF7FEFF 		bl	__aeabi_dmul
 239 0100 0300     		movs	r3, r0
 240 0102 0C00     		movs	r4, r1
 241 0104 1800     		movs	r0, r3
 242 0106 2100     		movs	r1, r4
 243 0108 FFF7FEFF 		bl	__aeabi_d2uiz
ARM GAS  C:\Users\SHOZO\AppData\Local\Temp\ccTwovJ4.s 			page 7


 244 010c 0300     		movs	r3, r0
 245 010e 9AB2     		uxth	r2, r3
 246 0110 044B     		ldr	r3, .L12+12
 247 0112 1A80     		strh	r2, [r3]
 248              	.LBE2:
  86:main.c        ****     }
 249              		.loc 1 86 0
 250 0114 80E7     		b	.L11
 251              	.L13:
 252 0116 C046     		.align	2
 253              	.L12:
 254 0118 00000000 		.word	Button
 255 011c 00000000 		.word	Status
 256 0120 00000000 		.word	SendData
 257 0124 00000000 		.word	bright
 258 0128 AE47E17A 		.word	2061584302
 259 012c 14AEEF3F 		.word	1072672276
 260              		.cfi_endproc
 261              	.LFE32:
 262              		.size	main, .-main
 263              		.text
 264              	.Letext0:
 265              		.file 2 "Generated_Source\\PSoC4/cytypes.h"